Zilog eZ80 Macro Assembler Version 4.3 (19073001) RELISTED01-Mar-23     09:55:02     page:   1


PC     Object              I  Line    Source 
                           A     1    ; Zilog eZ80 ANSI C Compiler Release 3.4
                           A     2    ; -nomodsect -optsize -noreduceopt -nopadbranch
                           A     3    ; -peephole -globalopt -localcse -const=ROM 
                           A     4    	FILE	"..\main.c"
                           A     5    	.assume ADL=1
                           A     6    .DEBUG "C"
                           A     7    	SEGMENT CODE
                           A     8    .BEGREC "fmt_type",19
                           A     9    .DEFINE "status"
                           A    10    .VALUE 0
                           A    11    .CLASS 8
                           A    12    .TYPE 12
                           A    13    .ENDEF
                           A    14    .DEFINE "flags"
                           A    15    .VALUE 1
                           A    16    .CLASS 8
                           A    17    .TYPE 12
                           A    18    .ENDEF
                           A    19    .DEFINE "size"
                           A    20    .VALUE 2
                           A    21    .CLASS 8
                           A    22    .TYPE 2
                           A    23    .ENDEF
                           A    24    .DEFINE "chr"
                           A    25    .VALUE 3
                           A    26    .CLASS 8
                           A    27    .TYPE 2
                           A    28    .ENDEF
                           A    29    .DEFINE "type"
                           A    30    .VALUE 4
                           A    31    .CLASS 8
                           A    32    .TYPE 2
                           A    33    .ENDEF
                           A    34    .DEFINE "field_width"
                           A    35    .VALUE 5
                           A    36    .CLASS 8
                           A    37    .TYPE 2
                           A    38    .ENDEF
                           A    39    .DEFINE "precision"
                           A    40    .VALUE 6
                           A    41    .CLASS 8
                           A    42    .TYPE 2
                           A    43    .ENDEF
                           A    44    .DEFINE "set_begin"
                           A    45    .VALUE 7
                           A    46    .CLASS 8
                           A    47    .TYPE 34
                           A    48    .ENDEF
                           A    49    .DEFINE "set_end"
                           A    50    .VALUE 10
                           A    51    .CLASS 8
                           A    52    .TYPE 34
                           A    53    .ENDEF
                           A    54    .DEFINE "pad_whole"
                           A    55    .VALUE 13
                           A    56    .CLASS 8
                           A    57    .TYPE 12
                           A    58    .ENDEF
                           A    59    .DEFINE "pad_pre_fract"
                           A    60    .VALUE 14
                           A    61    .CLASS 8
                           A    62    .TYPE 12
                           A    63    .ENDEF
                           A    64    .DEFINE "pad_post_fract"
                           A    65    .VALUE 15
                           A    66    .CLASS 8
                           A    67    .TYPE 12
                           A    68    .ENDEF
                           A    69    .DEFINE "pad_at"
                           A    70    .VALUE 16
                           A    71    .CLASS 8
                           A    72    .TYPE 34
                           A    73    .ENDEF
                           A    74    .ENDREC "fmt_type"
                           A    75    .BEGREC "flt_info",12
                           A    76    .DEFINE "flags"
                           A    77    .VALUE 0
                           A    78    .CLASS 8
                           A    79    .TYPE 12
                           A    80    .ENDEF
                           A    81    .DEFINE "exp"
                           A    82    .VALUE 1
                           A    83    .CLASS 8
                           A    84    .TYPE 2
                           A    85    .ENDEF
                           A    86    .DEFINE "digits"
                           A    87    .VALUE 2
                           A    88    .CLASS 8
                           A    89    .DIM 10
                           A    90    .TYPE 108
                           A    91    .ENDEF
                           A    92    .ENDREC "flt_info"
                           A    93    	SEGMENT DATA
0416BD                     A    94    _playerShipData:
0416BD 00000000            A    95    	DL	0
0416C1 00000000            A    96    	DL	0
0416C5 00000000            A    97    	DL	0
0416C9 00000000            A    98    	DL	0
0416CD 00000000            A    99    	DL	0
0416D1 00000000            A   100    	DL	0
0416D5 00000000            A   101    	DL	0
0416D9 00000000            A   102    	DL	0
0416DD 00000000            A   103    	DL	0
0416E1 00000000            A   104    	DL	0
0416E5 00000000            A   105    	DL	0
0416E9 00000000            A   106    	DL	0
0416ED 00000000            A   107    	DL	0
0416F1 00000000            A   108    	DL	0
0416F5 00000000            A   109    	DL	0
0416F9 00000000            A   110    	DL	0
0416FD 00000000            A   111    	DL	0
041701 00000000            A   112    	DL	0
041705 00000000            A   113    	DL	0
041709 00000000            A   114    	DL	0
04170D 00000000            A   115    	DL	0
041711 00000000            A   116    	DL	0
041715 00000000            A   117    	DL	0
041719 FFFFFFFF            A   118    	DL	-1
04171D FFFFFFFF            A   119    	DL	-1
041721 00000000            A   120    	DL	0
041725 00000000            A   121    	DL	0
041729 00000000            A   122    	DL	0
04172D 00000000            A   123    	DL	0
041731 00000000            A   124    	DL	0
041735 00000000            A   125    	DL	0
041739 00000000            A   126    	DL	0
04173D 00000000            A   127    	DL	0
041741 00000000            A   128    	DL	0
041745 00000000            A   129    	DL	0
041749 00000000            A   130    	DL	0
04174D 00000000            A   131    	DL	0
041751 00000000            A   132    	DL	0
041755 00000000            A   133    	DL	0
041759 FFFFFFFF            A   134    	DL	-1
04175D FFFFFFFF            A   135    	DL	-1
041761 00000000            A   136    	DL	0
041765 00000000            A   137    	DL	0
041769 00000000            A   138    	DL	0
04176D 00000000            A   139    	DL	0
041771 00000000            A   140    	DL	0
041775 00000000            A   141    	DL	0
041779 00000000            A   142    	DL	0
04177D 00000000            A   143    	DL	0
041781 00000000            A   144    	DL	0
041785 00000000            A   145    	DL	0
041789 00000000            A   146    	DL	0
04178D 00000000            A   147    	DL	0
041791 00000000            A   148    	DL	0
041795 00000000            A   149    	DL	0
041799 FFFFFFFF            A   150    	DL	-1
04179D FFFFFFFF            A   151    	DL	-1
0417A1 00000000            A   152    	DL	0
0417A5 00000000            A   153    	DL	0
0417A9 00000000            A   154    	DL	0
0417AD 00000000            A   155    	DL	0
0417B1 00000000            A   156    	DL	0
0417B5 00000000            A   157    	DL	0
0417B9 00000000            A   158    	DL	0
0417BD 00000000            A   159    	DL	0
0417C1 00000000            A   160    	DL	0
0417C5 00000000            A   161    	DL	0
0417C9 00000000            A   162    	DL	0
0417CD 00000000            A   163    	DL	0
0417D1 00000000            A   164    	DL	0
0417D5 00000000            A   165    	DL	0
0417D9 FFFFFFFF            A   166    	DL	-1
0417DD FFFFFFFF            A   167    	DL	-1
0417E1 00000000            A   168    	DL	0
0417E5 00000000            A   169    	DL	0
0417E9 00000000            A   170    	DL	0
0417ED 00000000            A   171    	DL	0
0417F1 00000000            A   172    	DL	0
0417F5 00000000            A   173    	DL	0
0417F9 00000000            A   174    	DL	0
0417FD 00000000            A   175    	DL	0
041801 00000000            A   176    	DL	0
041805 00000000            A   177    	DL	0
041809 00000000            A   178    	DL	0
04180D 00000000            A   179    	DL	0
041811 00000000            A   180    	DL	0
041815 FFFFFFFF            A   181    	DL	-1
041819 0000FFFF            A   182    	DL	-65536
04181D 000080FF            A   183    	DL	-8388608
041821 FFFFFFFF            A   184    	DL	-1
041825 00000000            A   185    	DL	0
041829 00000000            A   186    	DL	0
04182D 00000000            A   187    	DL	0
041831 00000000            A   188    	DL	0
041835 00000000            A   189    	DL	0
041839 00000000            A   190    	DL	0
04183D 00000000            A   191    	DL	0
041841 00000000            A   192    	DL	0
041845 00000000            A   193    	DL	0
041849 00000000            A   194    	DL	0
04184D 00000000            A   195    	DL	0
041851 00000000            A   196    	DL	0
041855 FFFFFFFF            A   197    	DL	-1
041859 0000FFFF            A   198    	DL	-65536
04185D 0000FFFF            A   199    	DL	-65536
041861 FFFFFFFF            A   200    	DL	-1
041865 00000000            A   201    	DL	0
041869 00000000            A   202    	DL	0
04186D 00000000            A   203    	DL	0
041871 00000000            A   204    	DL	0
041875 00000000            A   205    	DL	0
041879 00000000            A   206    	DL	0
04187D 00000000            A   207    	DL	0
041881 00000000            A   208    	DL	0
041885 00000000            A   209    	DL	0
041889 00000000            A   210    	DL	0
04188D 00000000            A   211    	DL	0
041891 00000000            A   212    	DL	0
041895 FFFFFFFF            A   213    	DL	-1
041899 0000FFFF            A   214    	DL	-65536
04189D 0000FFFF            A   215    	DL	-65536
0418A1 FFFFFFFF            A   216    	DL	-1
0418A5 00000000            A   217    	DL	0
0418A9 00000000            A   218    	DL	0
0418AD 00000000            A   219    	DL	0
0418B1 00000000            A   220    	DL	0
0418B5 00000000            A   221    	DL	0
0418B9 00000000            A   222    	DL	0
0418BD 00000000            A   223    	DL	0
0418C1 00000000            A   224    	DL	0
0418C5 00000000            A   225    	DL	0
0418C9 00000000            A   226    	DL	0
0418CD 00000000            A   227    	DL	0
0418D1 FFFFFFFF            A   228    	DL	-1
0418D5 FFFFFFFF            A   229    	DL	-1
0418D9 FFFFFFFF            A   230    	DL	-1
0418DD FFFFFFFF            A   231    	DL	-1
0418E1 FFFFFFFF            A   232    	DL	-1
0418E5 FFFFFFFF            A   233    	DL	-1
0418E9 00000000            A   234    	DL	0
0418ED 00000000            A   235    	DL	0
0418F1 00000000            A   236    	DL	0
0418F5 00000000            A   237    	DL	0
0418F9 00000000            A   238    	DL	0
0418FD 00000000            A   239    	DL	0
041901 00000000            A   240    	DL	0
041905 00000000            A   241    	DL	0
041909 00000000            A   242    	DL	0
04190D 00000000            A   243    	DL	0
041911 FFFFFFFF            A   244    	DL	-1
041915 FFFFFFFF            A   245    	DL	-1
041919 FFFFFFFF            A   246    	DL	-1
04191D FFFFFFFF            A   247    	DL	-1
041921 FFFFFFFF            A   248    	DL	-1
041925 FFFFFFFF            A   249    	DL	-1
041929 00000000            A   250    	DL	0
04192D 00000000            A   251    	DL	0
041931 00000000            A   252    	DL	0
041935 00000000            A   253    	DL	0
041939 00000000            A   254    	DL	0
04193D 00000000            A   255    	DL	0
041941 00FF00FF            A   256    	DL	-16711936
041945 00000000            A   257    	DL	0
041949 00000000            A   258    	DL	0
04194D FFFFFFFF            A   259    	DL	-1
041951 FFFFFFFF            A   260    	DL	-1
041955 FFFFFFFF            A   261    	DL	-1
041959 00FF00FF            A   262    	DL	-16711936
04195D 00FF00FF            A   263    	DL	-16711936
041961 FFFFFFFF            A   264    	DL	-1
041965 FFFFFFFF            A   265    	DL	-1
041969 FFFFFFFF            A   266    	DL	-1
04196D 00000000            A   267    	DL	0
041971 00000000            A   268    	DL	0
041975 00FF00FF            A   269    	DL	-16711936
041979 00000000            A   270    	DL	0
04197D 00000000            A   271    	DL	0
041981 00FF00FF            A   272    	DL	-16711936
041985 00000000            A   273    	DL	0
041989 00000000            A   274    	DL	0
04198D FFFFFFFF            A   275    	DL	-1
041991 FFFFFFFF            A   276    	DL	-1
041995 FFFFFFFF            A   277    	DL	-1
041999 00FF00FF            A   278    	DL	-16711936
04199D 00FF00FF            A   279    	DL	-16711936
0419A1 FFFFFFFF            A   280    	DL	-1
0419A5 FFFFFFFF            A   281    	DL	-1
0419A9 FFFFFFFF            A   282    	DL	-1
0419AD 00000000            A   283    	DL	0
0419B1 00000000            A   284    	DL	0
0419B5 00FF00FF            A   285    	DL	-16711936
0419B9 00000000            A   286    	DL	0
0419BD 00000000            A   287    	DL	0
0419C1 00FF00FF            A   288    	DL	-16711936
0419C5 FFFFFFFF            A   289    	DL	-1
0419C9 FFFFFFFF            A   290    	DL	-1
0419CD FFFFFFFF            A   291    	DL	-1
0419D1 FFFFFFFF            A   292    	DL	-1
0419D5 FFFFFFFF            A   293    	DL	-1
0419D9 00FF00FF            A   294    	DL	-16711936
0419DD 00FF00FF            A   295    	DL	-16711936
0419E1 FFFFFFFF            A   296    	DL	-1
0419E5 FFFFFFFF            A   297    	DL	-1
0419E9 FFFFFFFF            A   298    	DL	-1
0419ED FFFFFFFF            A   299    	DL	-1
0419F1 FFFFFFFF            A   300    	DL	-1
0419F5 00FF00FF            A   301    	DL	-16711936
0419F9 00000000            A   302    	DL	0
0419FD 00000000            A   303    	DL	0
041A01 00FF00FF            A   304    	DL	-16711936
041A05 FFFFFFFF            A   305    	DL	-1
041A09 FFFFFFFF            A   306    	DL	-1
041A0D FFFFFFFF            A   307    	DL	-1
041A11 FFFFFFFF            A   308    	DL	-1
041A15 FFFFFFFF            A   309    	DL	-1
041A19 00FF00FF            A   310    	DL	-16711936
041A1D 00FF00FF            A   311    	DL	-16711936
041A21 FFFFFFFF            A   312    	DL	-1
041A25 FFFFFFFF            A   313    	DL	-1
041A29 FFFFFFFF            A   314    	DL	-1
041A2D FFFFFFFF            A   315    	DL	-1
041A31 FFFFFFFF            A   316    	DL	-1
041A35 00FF00FF            A   317    	DL	-16711936
041A39 00000000            A   318    	DL	0
041A3D 00000000            A   319    	DL	0
041A41 00FF00FF            A   320    	DL	-16711936
041A45 FFFFFFFF            A   321    	DL	-1
041A49 FFFFFFFF            A   322    	DL	-1
041A4D FFFFFFFF            A   323    	DL	-1
041A51 FFFFFFFF            A   324    	DL	-1
041A55 FFFFFFFF            A   325    	DL	-1
041A59 00FF00FF            A   326    	DL	-16711936
041A5D 00FF00FF            A   327    	DL	-16711936
041A61 FFFFFFFF            A   328    	DL	-1
041A65 FFFFFFFF            A   329    	DL	-1
041A69 FFFFFFFF            A   330    	DL	-1
041A6D FFFFFFFF            A   331    	DL	-1
041A71 FFFFFFFF            A   332    	DL	-1
041A75 00FF00FF            A   333    	DL	-16711936
041A79 00000000            A   334    	DL	0
041A7D 00000000            A   335    	DL	0
041A81 00FF00FF            A   336    	DL	-16711936
041A85 00000000            A   337    	DL	0
041A89 00000000            A   338    	DL	0
041A8D 00000000            A   339    	DL	0
041A91 00000000            A   340    	DL	0
041A95 00000000            A   341    	DL	0
041A99 00FF00FF            A   342    	DL	-16711936
041A9D 00FF00FF            A   343    	DL	-16711936
041AA1 00000000            A   344    	DL	0
041AA5 00000000            A   345    	DL	0
041AA9 00000000            A   346    	DL	0
041AAD 00000000            A   347    	DL	0
041AB1 00000000            A   348    	DL	0
041AB5 00FF00FF            A   349    	DL	-16711936
041AB9 00000000            A   350    	DL	0
                           A   351    .DEFINE "playerShipData"
                           A   352    .ALIAS "_playerShipData"
                           A   353    .CLASS 69
                           A   354    .VALUE _playerShipData
                           A   355    .DIM 256
                           A   356    .TYPE 111
                           A   357    .ENDEF
041ABD                     A   358    _playerBulletData:
041ABD 00000000            A   359    	DL	0
041AC1 00000000            A   360    	DL	0
041AC5 00000000            A   361    	DL	0
041AC9 00000000            A   362    	DL	0
041ACD 00000000            A   363    	DL	0
041AD1 00000000            A   364    	DL	0
041AD5 00000000            A   365    	DL	0
041AD9 FFFFFFFF            A   366    	DL	-1
041ADD FFFFFFFF            A   367    	DL	-1
041AE1 00000000            A   368    	DL	0
041AE5 00000000            A   369    	DL	0
041AE9 00000000            A   370    	DL	0
041AED 00000000            A   371    	DL	0
041AF1 00000000            A   372    	DL	0
041AF5 00000000            A   373    	DL	0
041AF9 00000000            A   374    	DL	0
041AFD 00000000            A   375    	DL	0
041B01 00000000            A   376    	DL	0
041B05 00000000            A   377    	DL	0
041B09 00000000            A   378    	DL	0
041B0D 00000000            A   379    	DL	0
041B11 00000000            A   380    	DL	0
041B15 00000000            A   381    	DL	0
041B19 FFFFFFFF            A   382    	DL	-1
041B1D FFFFFFFF            A   383    	DL	-1
041B21 00000000            A   384    	DL	0
041B25 00000000            A   385    	DL	0
041B29 00000000            A   386    	DL	0
041B2D 00000000            A   387    	DL	0
041B31 00000000            A   388    	DL	0
041B35 00000000            A   389    	DL	0
041B39 00000000            A   390    	DL	0
041B3D 00000000            A   391    	DL	0
041B41 00000000            A   392    	DL	0
041B45 00000000            A   393    	DL	0
041B49 00000000            A   394    	DL	0
041B4D 00000000            A   395    	DL	0
041B51 00000000            A   396    	DL	0
041B55 00000000            A   397    	DL	0
041B59 FFFF00FF            A   398    	DL	-16711681
041B5D FFFF00FF            A   399    	DL	-16711681
041B61 00000000            A   400    	DL	0
041B65 00000000            A   401    	DL	0
041B69 00000000            A   402    	DL	0
041B6D 00000000            A   403    	DL	0
041B71 00000000            A   404    	DL	0
041B75 00000000            A   405    	DL	0
041B79 00000000            A   406    	DL	0
041B7D 00000000            A   407    	DL	0
041B81 00000000            A   408    	DL	0
041B85 00000000            A   409    	DL	0
041B89 00000000            A   410    	DL	0
041B8D 00000000            A   411    	DL	0
041B91 00000000            A   412    	DL	0
041B95 00000000            A   413    	DL	0
041B99 FFFF00FF            A   414    	DL	-16711681
041B9D FFFF00FF            A   415    	DL	-16711681
041BA1 00000000            A   416    	DL	0
041BA5 00000000            A   417    	DL	0
041BA9 00000000            A   418    	DL	0
041BAD 00000000            A   419    	DL	0
041BB1 00000000            A   420    	DL	0
041BB5 00000000            A   421    	DL	0
041BB9 00000000            A   422    	DL	0
041BBD 00000000            A   423    	DL	0
041BC1 00000000            A   424    	DL	0
041BC5 00000000            A   425    	DL	0
041BC9 00000000            A   426    	DL	0
041BCD 00000000            A   427    	DL	0
041BD1 00000000            A   428    	DL	0
041BD5 00000000            A   429    	DL	0
041BD9 FF0000FF            A   430    	DL	-16776961
041BDD FF0000FF            A   431    	DL	-16776961
041BE1 00000000            A   432    	DL	0
041BE5 00000000            A   433    	DL	0
041BE9 00000000            A   434    	DL	0
041BED 00000000            A   435    	DL	0
041BF1 00000000            A   436    	DL	0
041BF5 00000000            A   437    	DL	0
041BF9 00000000            A   438    	DL	0
041BFD 00000000            A   439    	DL	0
041C01 00000000            A   440    	DL	0
041C05 00000000            A   441    	DL	0
041C09 00000000            A   442    	DL	0
041C0D 00000000            A   443    	DL	0
041C11 00000000            A   444    	DL	0
041C15 00000000            A   445    	DL	0
041C19 FF0000FF            A   446    	DL	-16776961
041C1D FF0000FF            A   447    	DL	-16776961
041C21 00000000            A   448    	DL	0
041C25 00000000            A   449    	DL	0
041C29 00000000            A   450    	DL	0
041C2D 00000000            A   451    	DL	0
041C31 00000000            A   452    	DL	0
041C35 00000000            A   453    	DL	0
041C39 00000000            A   454    	DL	0
041C3D 00000000            A   455    	DL	0
041C41 00000000            A   456    	DL	0
041C45 00000000            A   457    	DL	0
041C49 00000000            A   458    	DL	0
041C4D 00000000            A   459    	DL	0
041C51 00000000            A   460    	DL	0
041C55 00000000            A   461    	DL	0
041C59 800000FF            A   462    	DL	-16777088
041C5D 800000FF            A   463    	DL	-16777088
041C61 00000000            A   464    	DL	0
041C65 00000000            A   465    	DL	0
041C69 00000000            A   466    	DL	0
041C6D 00000000            A   467    	DL	0
041C71 00000000            A   468    	DL	0
041C75 00000000            A   469    	DL	0
041C79 00000000            A   470    	DL	0
041C7D 00000000            A   471    	DL	0
041C81 00000000            A   472    	DL	0
041C85 00000000            A   473    	DL	0
041C89 00000000            A   474    	DL	0
041C8D 00000000            A   475    	DL	0
041C91 00000000            A   476    	DL	0
041C95 00000000            A   477    	DL	0
041C99 800000FF            A   478    	DL	-16777088
041C9D 800000FF            A   479    	DL	-16777088
041CA1 00000000            A   480    	DL	0
041CA5 00000000            A   481    	DL	0
041CA9 00000000            A   482    	DL	0
041CAD 00000000            A   483    	DL	0
041CB1 00000000            A   484    	DL	0
041CB5 00000000            A   485    	DL	0
041CB9 00000000            A   486    	DL	0
041CBD 00000000            A   487    	DL	0
041CC1 00000000            A   488    	DL	0
041CC5 00000000            A   489    	DL	0
041CC9 00000000            A   490    	DL	0
041CCD 00000000            A   491    	DL	0
041CD1 00000000            A   492    	DL	0
041CD5 00000000            A   493    	DL	0
041CD9 00000000            A   494    	DL	0
041CDD 00000000            A   495    	DL	0
041CE1 00000000            A   496    	DL	0
041CE5 00000000            A   497    	DL	0
041CE9 00000000            A   498    	DL	0
041CED 00000000            A   499    	DL	0
041CF1 00000000            A   500    	DL	0
041CF5 00000000            A   501    	DL	0
041CF9 00000000            A   502    	DL	0
041CFD 00000000            A   503    	DL	0
041D01 00000000            A   504    	DL	0
041D05 00000000            A   505    	DL	0
041D09 00000000            A   506    	DL	0
041D0D 00000000            A   507    	DL	0
041D11 00000000            A   508    	DL	0
041D15 00000000            A   509    	DL	0
041D19 00000000            A   510    	DL	0
041D1D 00000000            A   511    	DL	0
041D21 00000000            A   512    	DL	0
041D25 00000000            A   513    	DL	0
041D29 00000000            A   514    	DL	0
041D2D 00000000            A   515    	DL	0
041D31 00000000            A   516    	DL	0
041D35 00000000            A   517    	DL	0
041D39 00000000            A   518    	DL	0
041D3D 00000000            A   519    	DL	0
041D41 00000000            A   520    	DL	0
041D45 00000000            A   521    	DL	0
041D49 00000000            A   522    	DL	0
041D4D 00000000            A   523    	DL	0
041D51 00000000            A   524    	DL	0
041D55 00000000            A   525    	DL	0
041D59 00000000            A   526    	DL	0
041D5D 00000000            A   527    	DL	0
041D61 00000000            A   528    	DL	0
041D65 00000000            A   529    	DL	0
041D69 00000000            A   530    	DL	0
041D6D 00000000            A   531    	DL	0
041D71 00000000            A   532    	DL	0
041D75 00000000            A   533    	DL	0
041D79 00000000            A   534    	DL	0
041D7D 00000000            A   535    	DL	0
041D81 00000000            A   536    	DL	0
041D85 00000000            A   537    	DL	0
041D89 00000000            A   538    	DL	0
041D8D 00000000            A   539    	DL	0
041D91 00000000            A   540    	DL	0
041D95 00000000            A   541    	DL	0
041D99 00000000            A   542    	DL	0
041D9D 00000000            A   543    	DL	0
041DA1 00000000            A   544    	DL	0
041DA5 00000000            A   545    	DL	0
041DA9 00000000            A   546    	DL	0
041DAD 00000000            A   547    	DL	0
041DB1 00000000            A   548    	DL	0
041DB5 00000000            A   549    	DL	0
041DB9 00000000            A   550    	DL	0
041DBD 00000000            A   551    	DL	0
041DC1 00000000            A   552    	DL	0
041DC5 00000000            A   553    	DL	0
041DC9 00000000            A   554    	DL	0
041DCD 00000000            A   555    	DL	0
041DD1 00000000            A   556    	DL	0
041DD5 00000000            A   557    	DL	0
041DD9 00000000            A   558    	DL	0
041DDD 00000000            A   559    	DL	0
041DE1 00000000            A   560    	DL	0
041DE5 00000000            A   561    	DL	0
041DE9 00000000            A   562    	DL	0
041DED 00000000            A   563    	DL	0
041DF1 00000000            A   564    	DL	0
041DF5 00000000            A   565    	DL	0
041DF9 00000000            A   566    	DL	0
041DFD 00000000            A   567    	DL	0
041E01 00000000            A   568    	DL	0
041E05 00000000            A   569    	DL	0
041E09 00000000            A   570    	DL	0
041E0D 00000000            A   571    	DL	0
041E11 00000000            A   572    	DL	0
041E15 00000000            A   573    	DL	0
041E19 00000000            A   574    	DL	0
041E1D 00000000            A   575    	DL	0
041E21 00000000            A   576    	DL	0
041E25 00000000            A   577    	DL	0
041E29 00000000            A   578    	DL	0
041E2D 00000000            A   579    	DL	0
041E31 00000000            A   580    	DL	0
041E35 00000000            A   581    	DL	0
041E39 00000000            A   582    	DL	0
041E3D 00000000            A   583    	DL	0
041E41 00000000            A   584    	DL	0
041E45 00000000            A   585    	DL	0
041E49 00000000            A   586    	DL	0
041E4D 00000000            A   587    	DL	0
041E51 00000000            A   588    	DL	0
041E55 00000000            A   589    	DL	0
041E59 00000000            A   590    	DL	0
041E5D 00000000            A   591    	DL	0
041E61 00000000            A   592    	DL	0
041E65 00000000            A   593    	DL	0
041E69 00000000            A   594    	DL	0
041E6D 00000000            A   595    	DL	0
041E71 00000000            A   596    	DL	0
041E75 00000000            A   597    	DL	0
041E79 00000000            A   598    	DL	0
041E7D 00000000            A   599    	DL	0
041E81 00000000            A   600    	DL	0
041E85 00000000            A   601    	DL	0
041E89 00000000            A   602    	DL	0
041E8D 00000000            A   603    	DL	0
041E91 00000000            A   604    	DL	0
041E95 00000000            A   605    	DL	0
041E99 00000000            A   606    	DL	0
041E9D 00000000            A   607    	DL	0
041EA1 00000000            A   608    	DL	0
041EA5 00000000            A   609    	DL	0
041EA9 00000000            A   610    	DL	0
041EAD 00000000            A   611    	DL	0
041EB1 00000000            A   612    	DL	0
041EB5 00000000            A   613    	DL	0
041EB9 00000000            A   614    	DL	0
                           A   615    .DEFINE "playerBulletData"
                           A   616    .ALIAS "_playerBulletData"
                           A   617    .CLASS 69
                           A   618    .VALUE _playerBulletData
                           A   619    .DIM 256
                           A   620    .TYPE 111
                           A   621    .ENDEF
041EBD                     A   622    _ufoData:
041EBD 00000000            A   623    	DL	0
041EC1 00000000            A   624    	DL	0
041EC5 00000000            A   625    	DL	0
041EC9 00000000            A   626    	DL	0
041ECD 00000000            A   627    	DL	0
041ED1 00000000            A   628    	DL	0
041ED5 00000000            A   629    	DL	0
041ED9 00000000            A   630    	DL	0
041EDD 00000000            A   631    	DL	0
041EE1 00000000            A   632    	DL	0
041EE5 00000000            A   633    	DL	0
041EE9 00000000            A   634    	DL	0
041EED 00000000            A   635    	DL	0
041EF1 00000000            A   636    	DL	0
041EF5 00000000            A   637    	DL	0
041EF9 00000000            A   638    	DL	0
041EFD 00000000            A   639    	DL	0
041F01 00000000            A   640    	DL	0
041F05 00000000            A   641    	DL	0
041F09 00000000            A   642    	DL	0
041F0D 00000000            A   643    	DL	0
041F11 00000000            A   644    	DL	0
041F15 00000000            A   645    	DL	0
041F19 FFFF00FF            A   646    	DL	-16711681
041F1D FFFF00FF            A   647    	DL	-16711681
041F21 00000000            A   648    	DL	0
041F25 00000000            A   649    	DL	0
041F29 00000000            A   650    	DL	0
041F2D 00000000            A   651    	DL	0
041F31 00000000            A   652    	DL	0
041F35 00000000            A   653    	DL	0
041F39 00000000            A   654    	DL	0
041F3D 00000000            A   655    	DL	0
041F41 00000000            A   656    	DL	0
041F45 00000000            A   657    	DL	0
041F49 00000000            A   658    	DL	0
041F4D 00000000            A   659    	DL	0
041F51 00000000            A   660    	DL	0
041F55 FFFF00FF            A   661    	DL	-16711681
041F59 00000000            A   662    	DL	0
041F5D 00000000            A   663    	DL	0
041F61 FFFF00FF            A   664    	DL	-16711681
041F65 00000000            A   665    	DL	0
041F69 00000000            A   666    	DL	0
041F6D 00000000            A   667    	DL	0
041F71 00000000            A   668    	DL	0
041F75 00000000            A   669    	DL	0
041F79 00000000            A   670    	DL	0
041F7D 00000000            A   671    	DL	0
041F81 00000000            A   672    	DL	0
041F85 00000000            A   673    	DL	0
041F89 00000000            A   674    	DL	0
041F8D FFFF00FF            A   675    	DL	-16711681
041F91 FFFF00FF            A   676    	DL	-16711681
041F95 FFFF00FF            A   677    	DL	-16711681
041F99 FFFF00FF            A   678    	DL	-16711681
041F9D FFFF00FF            A   679    	DL	-16711681
041FA1 FFFF00FF            A   680    	DL	-16711681
041FA5 FFFF00FF            A   681    	DL	-16711681
041FA9 FFFF00FF            A   682    	DL	-16711681
041FAD 00000000            A   683    	DL	0
041FB1 00000000            A   684    	DL	0
041FB5 00000000            A   685    	DL	0
041FB9 00000000            A   686    	DL	0
041FBD 00000000            A   687    	DL	0
041FC1 00000000            A   688    	DL	0
041FC5 FFFF00FF            A   689    	DL	-16711681
041FC9 FFFF00FF            A   690    	DL	-16711681
041FCD FFFF00FF            A   691    	DL	-16711681
041FD1 FFFF00FF            A   692    	DL	-16711681
041FD5 FFFF00FF            A   693    	DL	-16711681
041FD9 FFFF00FF            A   694    	DL	-16711681
041FDD FFFF00FF            A   695    	DL	-16711681
041FE1 FFFF00FF            A   696    	DL	-16711681
041FE5 FFFF00FF            A   697    	DL	-16711681
041FE9 FFFF00FF            A   698    	DL	-16711681
041FED FFFF00FF            A   699    	DL	-16711681
041FF1 FFFF00FF            A   700    	DL	-16711681
041FF5 00000000            A   701    	DL	0
041FF9 00000000            A   702    	DL	0
041FFD FFFF00FF            A   703    	DL	-16711681
042001 FFFF00FF            A   704    	DL	-16711681
042005 FFFF00FF            A   705    	DL	-16711681
042009 FFFF00FF            A   706    	DL	-16711681
04200D FFFF00FF            A   707    	DL	-16711681
042011 FFFF00FF            A   708    	DL	-16711681
042015 FFFF00FF            A   709    	DL	-16711681
042019 FFFF00FF            A   710    	DL	-16711681
04201D FFFF00FF            A   711    	DL	-16711681
042021 FFFF00FF            A   712    	DL	-16711681
042025 FFFF00FF            A   713    	DL	-16711681
042029 FFFF00FF            A   714    	DL	-16711681
04202D FFFF00FF            A   715    	DL	-16711681
042031 FFFF00FF            A   716    	DL	-16711681
042035 FFFF00FF            A   717    	DL	-16711681
042039 FFFF00FF            A   718    	DL	-16711681
04203D FFFF00FF            A   719    	DL	-16711681
042041 FF0000FF            A   720    	DL	-16776961
042045 FF0000FF            A   721    	DL	-16776961
042049 FFFF00FF            A   722    	DL	-16711681
04204D FF0000FF            A   723    	DL	-16776961
042051 FF0000FF            A   724    	DL	-16776961
042055 FFFF00FF            A   725    	DL	-16711681
042059 FF0000FF            A   726    	DL	-16776961
04205D FF0000FF            A   727    	DL	-16776961
042061 FFFF00FF            A   728    	DL	-16711681
042065 FF0000FF            A   729    	DL	-16776961
042069 FF0000FF            A   730    	DL	-16776961
04206D FFFF00FF            A   731    	DL	-16711681
042071 FF0000FF            A   732    	DL	-16776961
042075 FF0000FF            A   733    	DL	-16776961
042079 FFFF00FF            A   734    	DL	-16711681
04207D FFFF00FF            A   735    	DL	-16711681
042081 FFFF00FF            A   736    	DL	-16711681
042085 FFFF00FF            A   737    	DL	-16711681
042089 FFFF00FF            A   738    	DL	-16711681
04208D FFFF00FF            A   739    	DL	-16711681
042091 FFFF00FF            A   740    	DL	-16711681
042095 FFFF00FF            A   741    	DL	-16711681
042099 FFFF00FF            A   742    	DL	-16711681
04209D FFFF00FF            A   743    	DL	-16711681
0420A1 FFFF00FF            A   744    	DL	-16711681
0420A5 FFFF00FF            A   745    	DL	-16711681
0420A9 FFFF00FF            A   746    	DL	-16711681
0420AD FFFF00FF            A   747    	DL	-16711681
0420B1 FFFF00FF            A   748    	DL	-16711681
0420B5 FFFF00FF            A   749    	DL	-16711681
0420B9 808000FF            A   750    	DL	-16744320
0420BD 00000000            A   751    	DL	0
0420C1 00000000            A   752    	DL	0
0420C5 00000000            A   753    	DL	0
0420C9 FFFF00FF            A   754    	DL	-16711681
0420CD FFFF00FF            A   755    	DL	-16711681
0420D1 FFFF00FF            A   756    	DL	-16711681
0420D5 FFFF00FF            A   757    	DL	-16711681
0420D9 FFFF00FF            A   758    	DL	-16711681
0420DD FFFF00FF            A   759    	DL	-16711681
0420E1 FFFF00FF            A   760    	DL	-16711681
0420E5 FFFF00FF            A   761    	DL	-16711681
0420E9 FFFF00FF            A   762    	DL	-16711681
0420ED 808000FF            A   763    	DL	-16744320
0420F1 00000000            A   764    	DL	0
0420F5 00000000            A   765    	DL	0
0420F9 00000000            A   766    	DL	0
0420FD 00000000            A   767    	DL	0
042101 00000000            A   768    	DL	0
042105 00000000            A   769    	DL	0
042109 00000000            A   770    	DL	0
04210D 00000000            A   771    	DL	0
042111 00000000            A   772    	DL	0
042115 FFFF00FF            A   773    	DL	-16711681
042119 FFFF00FF            A   774    	DL	-16711681
04211D 808000FF            A   775    	DL	-16744320
042121 00000000            A   776    	DL	0
042125 00000000            A   777    	DL	0
042129 00000000            A   778    	DL	0
04212D 00000000            A   779    	DL	0
042131 00000000            A   780    	DL	0
042135 00000000            A   781    	DL	0
042139 00000000            A   782    	DL	0
04213D 00000000            A   783    	DL	0
042141 00000000            A   784    	DL	0
042145 00000000            A   785    	DL	0
042149 00000000            A   786    	DL	0
04214D 00000000            A   787    	DL	0
042151 00000000            A   788    	DL	0
042155 00000000            A   789    	DL	0
042159 00000000            A   790    	DL	0
04215D 00000000            A   791    	DL	0
042161 00000000            A   792    	DL	0
042165 00000000            A   793    	DL	0
042169 00000000            A   794    	DL	0
04216D 00000000            A   795    	DL	0
042171 00000000            A   796    	DL	0
042175 00000000            A   797    	DL	0
042179 00000000            A   798    	DL	0
04217D 00000000            A   799    	DL	0
042181 00000000            A   800    	DL	0
042185 00000000            A   801    	DL	0
042189 00000000            A   802    	DL	0
04218D 00000000            A   803    	DL	0
042191 00000000            A   804    	DL	0
042195 00000000            A   805    	DL	0
042199 00000000            A   806    	DL	0
04219D 00000000            A   807    	DL	0
0421A1 00000000            A   808    	DL	0
0421A5 00000000            A   809    	DL	0
0421A9 00000000            A   810    	DL	0
0421AD 00000000            A   811    	DL	0
0421B1 00000000            A   812    	DL	0
0421B5 00000000            A   813    	DL	0
0421B9 00000000            A   814    	DL	0
0421BD 00000000            A   815    	DL	0
0421C1 00000000            A   816    	DL	0
0421C5 00000000            A   817    	DL	0
0421C9 00000000            A   818    	DL	0
0421CD 00000000            A   819    	DL	0
0421D1 00000000            A   820    	DL	0
0421D5 00000000            A   821    	DL	0
0421D9 00000000            A   822    	DL	0
0421DD 00000000            A   823    	DL	0
0421E1 00000000            A   824    	DL	0
0421E5 00000000            A   825    	DL	0
0421E9 00000000            A   826    	DL	0
0421ED 00000000            A   827    	DL	0
0421F1 00000000            A   828    	DL	0
0421F5 00000000            A   829    	DL	0
0421F9 00000000            A   830    	DL	0
0421FD 00000000            A   831    	DL	0
042201 00000000            A   832    	DL	0
042205 00000000            A   833    	DL	0
042209 00000000            A   834    	DL	0
04220D 00000000            A   835    	DL	0
042211 00000000            A   836    	DL	0
042215 00000000            A   837    	DL	0
042219 00000000            A   838    	DL	0
04221D 00000000            A   839    	DL	0
042221 00000000            A   840    	DL	0
042225 00000000            A   841    	DL	0
042229 00000000            A   842    	DL	0
04222D 00000000            A   843    	DL	0
042231 00000000            A   844    	DL	0
042235 00000000            A   845    	DL	0
042239 00000000            A   846    	DL	0
04223D 00000000            A   847    	DL	0
042241 00000000            A   848    	DL	0
042245 00000000            A   849    	DL	0
042249 00000000            A   850    	DL	0
04224D 00000000            A   851    	DL	0
042251 00000000            A   852    	DL	0
042255 00000000            A   853    	DL	0
042259 00000000            A   854    	DL	0
04225D 00000000            A   855    	DL	0
042261 00000000            A   856    	DL	0
042265 00000000            A   857    	DL	0
042269 00000000            A   858    	DL	0
04226D 00000000            A   859    	DL	0
042271 00000000            A   860    	DL	0
042275 00000000            A   861    	DL	0
042279 00000000            A   862    	DL	0
04227D 00000000            A   863    	DL	0
042281 00000000            A   864    	DL	0
042285 00000000            A   865    	DL	0
042289 00000000            A   866    	DL	0
04228D 00000000            A   867    	DL	0
042291 00000000            A   868    	DL	0
042295 00000000            A   869    	DL	0
042299 00000000            A   870    	DL	0
04229D 00000000            A   871    	DL	0
0422A1 00000000            A   872    	DL	0
0422A5 00000000            A   873    	DL	0
0422A9 00000000            A   874    	DL	0
0422AD 00000000            A   875    	DL	0
0422B1 00000000            A   876    	DL	0
0422B5 00000000            A   877    	DL	0
0422B9 00000000            A   878    	DL	0
0422BD 00000000            A   879    	DL	0
0422C1 00000000            A   880    	DL	0
0422C5 00000000            A   881    	DL	0
0422C9 00000000            A   882    	DL	0
0422CD 00000000            A   883    	DL	0
0422D1 00000000            A   884    	DL	0
0422D5 00000000            A   885    	DL	0
0422D9 00000000            A   886    	DL	0
0422DD 00000000            A   887    	DL	0
0422E1 00000000            A   888    	DL	0
0422E5 00000000            A   889    	DL	0
0422E9 00000000            A   890    	DL	0
0422ED 00000000            A   891    	DL	0
0422F1 00000000            A   892    	DL	0
0422F5 00000000            A   893    	DL	0
0422F9 00000000            A   894    	DL	0
0422FD 00000000            A   895    	DL	0
042301 00000000            A   896    	DL	0
042305 00000000            A   897    	DL	0
042309 00000000            A   898    	DL	0
04230D 00000000            A   899    	DL	0
042311 00000000            A   900    	DL	0
042315 00000000            A   901    	DL	0
042319 FFFF00FF            A   902    	DL	-16711681
04231D FFFF00FF            A   903    	DL	-16711681
042321 00000000            A   904    	DL	0
042325 00000000            A   905    	DL	0
042329 00000000            A   906    	DL	0
04232D 00000000            A   907    	DL	0
042331 00000000            A   908    	DL	0
042335 00000000            A   909    	DL	0
042339 00000000            A   910    	DL	0
04233D 00000000            A   911    	DL	0
042341 00000000            A   912    	DL	0
042345 00000000            A   913    	DL	0
042349 00000000            A   914    	DL	0
04234D 00000000            A   915    	DL	0
042351 00000000            A   916    	DL	0
042355 FFFF00FF            A   917    	DL	-16711681
042359 00000000            A   918    	DL	0
04235D 00000000            A   919    	DL	0
042361 FFFF00FF            A   920    	DL	-16711681
042365 00000000            A   921    	DL	0
042369 00000000            A   922    	DL	0
04236D 00000000            A   923    	DL	0
042371 00000000            A   924    	DL	0
042375 00000000            A   925    	DL	0
042379 00000000            A   926    	DL	0
04237D 00000000            A   927    	DL	0
042381 00000000            A   928    	DL	0
042385 00000000            A   929    	DL	0
042389 00000000            A   930    	DL	0
04238D FFFF00FF            A   931    	DL	-16711681
042391 FFFF00FF            A   932    	DL	-16711681
042395 FFFF00FF            A   933    	DL	-16711681
042399 FFFF00FF            A   934    	DL	-16711681
04239D FFFF00FF            A   935    	DL	-16711681
0423A1 FFFF00FF            A   936    	DL	-16711681
0423A5 FFFF00FF            A   937    	DL	-16711681
0423A9 FFFF00FF            A   938    	DL	-16711681
0423AD 00000000            A   939    	DL	0
0423B1 00000000            A   940    	DL	0
0423B5 00000000            A   941    	DL	0
0423B9 00000000            A   942    	DL	0
0423BD 00000000            A   943    	DL	0
0423C1 00000000            A   944    	DL	0
0423C5 FFFF00FF            A   945    	DL	-16711681
0423C9 FFFF00FF            A   946    	DL	-16711681
0423CD FFFF00FF            A   947    	DL	-16711681
0423D1 FFFF00FF            A   948    	DL	-16711681
0423D5 FFFF00FF            A   949    	DL	-16711681
0423D9 FFFF00FF            A   950    	DL	-16711681
0423DD FFFF00FF            A   951    	DL	-16711681
0423E1 FFFF00FF            A   952    	DL	-16711681
0423E5 FFFF00FF            A   953    	DL	-16711681
0423E9 FFFF00FF            A   954    	DL	-16711681
0423ED FFFF00FF            A   955    	DL	-16711681
0423F1 FFFF00FF            A   956    	DL	-16711681
0423F5 00000000            A   957    	DL	0
0423F9 00000000            A   958    	DL	0
0423FD FFFF00FF            A   959    	DL	-16711681
042401 FFFF00FF            A   960    	DL	-16711681
042405 FFFF00FF            A   961    	DL	-16711681
042409 FFFF00FF            A   962    	DL	-16711681
04240D FFFF00FF            A   963    	DL	-16711681
042411 FFFF00FF            A   964    	DL	-16711681
042415 FFFF00FF            A   965    	DL	-16711681
042419 FFFF00FF            A   966    	DL	-16711681
04241D FFFF00FF            A   967    	DL	-16711681
042421 FFFF00FF            A   968    	DL	-16711681
042425 FFFF00FF            A   969    	DL	-16711681
042429 FFFF00FF            A   970    	DL	-16711681
04242D FFFF00FF            A   971    	DL	-16711681
042431 FFFF00FF            A   972    	DL	-16711681
042435 FFFF00FF            A   973    	DL	-16711681
042439 FFFF00FF            A   974    	DL	-16711681
04243D FF0000FF            A   975    	DL	-16776961
042441 FF0000FF            A   976    	DL	-16776961
042445 FFFF00FF            A   977    	DL	-16711681
042449 FF0000FF            A   978    	DL	-16776961
04244D FF0000FF            A   979    	DL	-16776961
042451 FFFF00FF            A   980    	DL	-16711681
042455 FF0000FF            A   981    	DL	-16776961
042459 FF0000FF            A   982    	DL	-16776961
04245D FFFF00FF            A   983    	DL	-16711681
042461 FF0000FF            A   984    	DL	-16776961
042465 FF0000FF            A   985    	DL	-16776961
042469 FFFF00FF            A   986    	DL	-16711681
04246D FF0000FF            A   987    	DL	-16776961
042471 FF0000FF            A   988    	DL	-16776961
042475 FFFF00FF            A   989    	DL	-16711681
042479 FF0000FF            A   990    	DL	-16776961
04247D FFFF00FF            A   991    	DL	-16711681
042481 FFFF00FF            A   992    	DL	-16711681
042485 FFFF00FF            A   993    	DL	-16711681
042489 FFFF00FF            A   994    	DL	-16711681
04248D FFFF00FF            A   995    	DL	-16711681
042491 FFFF00FF            A   996    	DL	-16711681
042495 FFFF00FF            A   997    	DL	-16711681
042499 FFFF00FF            A   998    	DL	-16711681
04249D FFFF00FF            A   999    	DL	-16711681
0424A1 FFFF00FF            A  1000    	DL	-16711681
0424A5 FFFF00FF            A  1001    	DL	-16711681
0424A9 FFFF00FF            A  1002    	DL	-16711681
0424AD FFFF00FF            A  1003    	DL	-16711681
0424B1 FFFF00FF            A  1004    	DL	-16711681
0424B5 FFFF00FF            A  1005    	DL	-16711681
0424B9 808000FF            A  1006    	DL	-16744320
0424BD 00000000            A  1007    	DL	0
0424C1 00000000            A  1008    	DL	0
0424C5 00000000            A  1009    	DL	0
0424C9 FFFF00FF            A  1010    	DL	-16711681
0424CD FFFF00FF            A  1011    	DL	-16711681
0424D1 FFFF00FF            A  1012    	DL	-16711681
0424D5 FFFF00FF            A  1013    	DL	-16711681
0424D9 FFFF00FF            A  1014    	DL	-16711681
0424DD FFFF00FF            A  1015    	DL	-16711681
0424E1 FFFF00FF            A  1016    	DL	-16711681
0424E5 FFFF00FF            A  1017    	DL	-16711681
0424E9 FFFF00FF            A  1018    	DL	-16711681
0424ED 808000FF            A  1019    	DL	-16744320
0424F1 00000000            A  1020    	DL	0
0424F5 00000000            A  1021    	DL	0
0424F9 00000000            A  1022    	DL	0
0424FD 00000000            A  1023    	DL	0
042501 00000000            A  1024    	DL	0
042505 00000000            A  1025    	DL	0
042509 00000000            A  1026    	DL	0
04250D 00000000            A  1027    	DL	0
042511 00000000            A  1028    	DL	0
042515 FFFF00FF            A  1029    	DL	-16711681
042519 FFFF00FF            A  1030    	DL	-16711681
04251D 808000FF            A  1031    	DL	-16744320
042521 00000000            A  1032    	DL	0
042525 00000000            A  1033    	DL	0
042529 00000000            A  1034    	DL	0
04252D 00000000            A  1035    	DL	0
042531 00000000            A  1036    	DL	0
042535 00000000            A  1037    	DL	0
042539 00000000            A  1038    	DL	0
04253D 00000000            A  1039    	DL	0
042541 00000000            A  1040    	DL	0
042545 00000000            A  1041    	DL	0
042549 00000000            A  1042    	DL	0
04254D 00000000            A  1043    	DL	0
042551 00000000            A  1044    	DL	0
042555 00000000            A  1045    	DL	0
042559 00000000            A  1046    	DL	0
04255D 00000000            A  1047    	DL	0
042561 00000000            A  1048    	DL	0
042565 00000000            A  1049    	DL	0
042569 00000000            A  1050    	DL	0
04256D 00000000            A  1051    	DL	0
042571 00000000            A  1052    	DL	0
042575 00000000            A  1053    	DL	0
042579 00000000            A  1054    	DL	0
04257D 00000000            A  1055    	DL	0
042581 00000000            A  1056    	DL	0
042585 00000000            A  1057    	DL	0
042589 00000000            A  1058    	DL	0
04258D 00000000            A  1059    	DL	0
042591 00000000            A  1060    	DL	0
042595 00000000            A  1061    	DL	0
042599 00000000            A  1062    	DL	0
04259D 00000000            A  1063    	DL	0
0425A1 00000000            A  1064    	DL	0
0425A5 00000000            A  1065    	DL	0
0425A9 00000000            A  1066    	DL	0
0425AD 00000000            A  1067    	DL	0
0425B1 00000000            A  1068    	DL	0
0425B5 00000000            A  1069    	DL	0
0425B9 00000000            A  1070    	DL	0
0425BD 00000000            A  1071    	DL	0
0425C1 00000000            A  1072    	DL	0
0425C5 00000000            A  1073    	DL	0
0425C9 00000000            A  1074    	DL	0
0425CD 00000000            A  1075    	DL	0
0425D1 00000000            A  1076    	DL	0
0425D5 00000000            A  1077    	DL	0
0425D9 00000000            A  1078    	DL	0
0425DD 00000000            A  1079    	DL	0
0425E1 00000000            A  1080    	DL	0
0425E5 00000000            A  1081    	DL	0
0425E9 00000000            A  1082    	DL	0
0425ED 00000000            A  1083    	DL	0
0425F1 00000000            A  1084    	DL	0
0425F5 00000000            A  1085    	DL	0
0425F9 00000000            A  1086    	DL	0
0425FD 00000000            A  1087    	DL	0
042601 00000000            A  1088    	DL	0
042605 00000000            A  1089    	DL	0
042609 00000000            A  1090    	DL	0
04260D 00000000            A  1091    	DL	0
042611 00000000            A  1092    	DL	0
042615 00000000            A  1093    	DL	0
042619 00000000            A  1094    	DL	0
04261D 00000000            A  1095    	DL	0
042621 00000000            A  1096    	DL	0
042625 00000000            A  1097    	DL	0
042629 00000000            A  1098    	DL	0
04262D 00000000            A  1099    	DL	0
042631 00000000            A  1100    	DL	0
042635 00000000            A  1101    	DL	0
042639 00000000            A  1102    	DL	0
04263D 00000000            A  1103    	DL	0
042641 00000000            A  1104    	DL	0
042645 00000000            A  1105    	DL	0
042649 00000000            A  1106    	DL	0
04264D 00000000            A  1107    	DL	0
042651 00000000            A  1108    	DL	0
042655 00000000            A  1109    	DL	0
042659 00000000            A  1110    	DL	0
04265D 00000000            A  1111    	DL	0
042661 00000000            A  1112    	DL	0
042665 00000000            A  1113    	DL	0
042669 00000000            A  1114    	DL	0
04266D 00000000            A  1115    	DL	0
042671 00000000            A  1116    	DL	0
042675 00000000            A  1117    	DL	0
042679 00000000            A  1118    	DL	0
04267D 00000000            A  1119    	DL	0
042681 00000000            A  1120    	DL	0
042685 00000000            A  1121    	DL	0
042689 00000000            A  1122    	DL	0
04268D 00000000            A  1123    	DL	0
042691 00000000            A  1124    	DL	0
042695 00000000            A  1125    	DL	0
042699 00000000            A  1126    	DL	0
04269D 00000000            A  1127    	DL	0
0426A1 00000000            A  1128    	DL	0
0426A5 00000000            A  1129    	DL	0
0426A9 00000000            A  1130    	DL	0
0426AD 00000000            A  1131    	DL	0
0426B1 00000000            A  1132    	DL	0
0426B5 00000000            A  1133    	DL	0
0426B9 00000000            A  1134    	DL	0
0426BD 00000000            A  1135    	DL	0
0426C1 00000000            A  1136    	DL	0
0426C5 00000000            A  1137    	DL	0
0426C9 00000000            A  1138    	DL	0
0426CD 00000000            A  1139    	DL	0
0426D1 00000000            A  1140    	DL	0
0426D5 00000000            A  1141    	DL	0
0426D9 00000000            A  1142    	DL	0
0426DD 00000000            A  1143    	DL	0
0426E1 00000000            A  1144    	DL	0
0426E5 00000000            A  1145    	DL	0
0426E9 00000000            A  1146    	DL	0
0426ED 00000000            A  1147    	DL	0
0426F1 00000000            A  1148    	DL	0
0426F5 00000000            A  1149    	DL	0
0426F9 00000000            A  1150    	DL	0
0426FD 00000000            A  1151    	DL	0
042701 00000000            A  1152    	DL	0
042705 00000000            A  1153    	DL	0
042709 00000000            A  1154    	DL	0
04270D 00000000            A  1155    	DL	0
042711 00000000            A  1156    	DL	0
042715 00000000            A  1157    	DL	0
042719 FFFF00FF            A  1158    	DL	-16711681
04271D FFFF00FF            A  1159    	DL	-16711681
042721 00000000            A  1160    	DL	0
042725 00000000            A  1161    	DL	0
042729 00000000            A  1162    	DL	0
04272D 00000000            A  1163    	DL	0
042731 00000000            A  1164    	DL	0
042735 00000000            A  1165    	DL	0
042739 00000000            A  1166    	DL	0
04273D 00000000            A  1167    	DL	0
042741 00000000            A  1168    	DL	0
042745 00000000            A  1169    	DL	0
042749 00000000            A  1170    	DL	0
04274D 00000000            A  1171    	DL	0
042751 00000000            A  1172    	DL	0
042755 FFFF00FF            A  1173    	DL	-16711681
042759 00000000            A  1174    	DL	0
04275D 00000000            A  1175    	DL	0
042761 FFFF00FF            A  1176    	DL	-16711681
042765 00000000            A  1177    	DL	0
042769 00000000            A  1178    	DL	0
04276D 00000000            A  1179    	DL	0
042771 00000000            A  1180    	DL	0
042775 00000000            A  1181    	DL	0
042779 00000000            A  1182    	DL	0
04277D 00000000            A  1183    	DL	0
042781 00000000            A  1184    	DL	0
042785 00000000            A  1185    	DL	0
042789 00000000            A  1186    	DL	0
04278D FFFF00FF            A  1187    	DL	-16711681
042791 FFFF00FF            A  1188    	DL	-16711681
042795 FFFF00FF            A  1189    	DL	-16711681
042799 FFFF00FF            A  1190    	DL	-16711681
04279D FFFF00FF            A  1191    	DL	-16711681
0427A1 FFFF00FF            A  1192    	DL	-16711681
0427A5 FFFF00FF            A  1193    	DL	-16711681
0427A9 FFFF00FF            A  1194    	DL	-16711681
0427AD 00000000            A  1195    	DL	0
0427B1 00000000            A  1196    	DL	0
0427B5 00000000            A  1197    	DL	0
0427B9 00000000            A  1198    	DL	0
0427BD 00000000            A  1199    	DL	0
0427C1 00000000            A  1200    	DL	0
0427C5 FFFF00FF            A  1201    	DL	-16711681
0427C9 FFFF00FF            A  1202    	DL	-16711681
0427CD FFFF00FF            A  1203    	DL	-16711681
0427D1 FFFF00FF            A  1204    	DL	-16711681
0427D5 FFFF00FF            A  1205    	DL	-16711681
0427D9 FFFF00FF            A  1206    	DL	-16711681
0427DD FFFF00FF            A  1207    	DL	-16711681
0427E1 FFFF00FF            A  1208    	DL	-16711681
0427E5 FFFF00FF            A  1209    	DL	-16711681
0427E9 FFFF00FF            A  1210    	DL	-16711681
0427ED FFFF00FF            A  1211    	DL	-16711681
0427F1 FFFF00FF            A  1212    	DL	-16711681
0427F5 00000000            A  1213    	DL	0
0427F9 00000000            A  1214    	DL	0
0427FD FFFF00FF            A  1215    	DL	-16711681
042801 FFFF00FF            A  1216    	DL	-16711681
042805 FFFF00FF            A  1217    	DL	-16711681
042809 FFFF00FF            A  1218    	DL	-16711681
04280D FFFF00FF            A  1219    	DL	-16711681
042811 FFFF00FF            A  1220    	DL	-16711681
042815 FFFF00FF            A  1221    	DL	-16711681
042819 FFFF00FF            A  1222    	DL	-16711681
04281D FFFF00FF            A  1223    	DL	-16711681
042821 FFFF00FF            A  1224    	DL	-16711681
042825 FFFF00FF            A  1225    	DL	-16711681
042829 FFFF00FF            A  1226    	DL	-16711681
04282D FFFF00FF            A  1227    	DL	-16711681
042831 FFFF00FF            A  1228    	DL	-16711681
042835 FFFF00FF            A  1229    	DL	-16711681
042839 FFFF00FF            A  1230    	DL	-16711681
04283D FF0000FF            A  1231    	DL	-16776961
042841 FFFF00FF            A  1232    	DL	-16711681
042845 FF0000FF            A  1233    	DL	-16776961
042849 FF0000FF            A  1234    	DL	-16776961
04284D FFFF00FF            A  1235    	DL	-16711681
042851 FF0000FF            A  1236    	DL	-16776961
042855 FF0000FF            A  1237    	DL	-16776961
042859 FFFF00FF            A  1238    	DL	-16711681
04285D FF0000FF            A  1239    	DL	-16776961
042861 FF0000FF            A  1240    	DL	-16776961
042865 FFFF00FF            A  1241    	DL	-16711681
042869 FF0000FF            A  1242    	DL	-16776961
04286D FF0000FF            A  1243    	DL	-16776961
042871 FFFF00FF            A  1244    	DL	-16711681
042875 FF0000FF            A  1245    	DL	-16776961
042879 FF0000FF            A  1246    	DL	-16776961
04287D FFFF00FF            A  1247    	DL	-16711681
042881 FFFF00FF            A  1248    	DL	-16711681
042885 FFFF00FF            A  1249    	DL	-16711681
042889 FFFF00FF            A  1250    	DL	-16711681
04288D FFFF00FF            A  1251    	DL	-16711681
042891 FFFF00FF            A  1252    	DL	-16711681
042895 FFFF00FF            A  1253    	DL	-16711681
042899 FFFF00FF            A  1254    	DL	-16711681
04289D FFFF00FF            A  1255    	DL	-16711681
0428A1 FFFF00FF            A  1256    	DL	-16711681
0428A5 FFFF00FF            A  1257    	DL	-16711681
0428A9 FFFF00FF            A  1258    	DL	-16711681
0428AD FFFF00FF            A  1259    	DL	-16711681
0428B1 FFFF00FF            A  1260    	DL	-16711681
0428B5 FFFF00FF            A  1261    	DL	-16711681
0428B9 808000FF            A  1262    	DL	-16744320
0428BD 00000000            A  1263    	DL	0
0428C1 00000000            A  1264    	DL	0
0428C5 00000000            A  1265    	DL	0
0428C9 FFFF00FF            A  1266    	DL	-16711681
0428CD FFFF00FF            A  1267    	DL	-16711681
0428D1 FFFF00FF            A  1268    	DL	-16711681
0428D5 FFFF00FF            A  1269    	DL	-16711681
0428D9 FFFF00FF            A  1270    	DL	-16711681
0428DD FFFF00FF            A  1271    	DL	-16711681
0428E1 FFFF00FF            A  1272    	DL	-16711681
0428E5 FFFF00FF            A  1273    	DL	-16711681
0428E9 FFFF00FF            A  1274    	DL	-16711681
0428ED 808000FF            A  1275    	DL	-16744320
0428F1 00000000            A  1276    	DL	0
0428F5 00000000            A  1277    	DL	0
0428F9 00000000            A  1278    	DL	0
0428FD 00000000            A  1279    	DL	0
042901 00000000            A  1280    	DL	0
042905 00000000            A  1281    	DL	0
042909 00000000            A  1282    	DL	0
04290D 00000000            A  1283    	DL	0
042911 00000000            A  1284    	DL	0
042915 FFFFFFFF            A  1285    	DL	-1
042919 FFFFFFFF            A  1286    	DL	-1
04291D 808080FF            A  1287    	DL	-8355712
042921 00000000            A  1288    	DL	0
042925 00000000            A  1289    	DL	0
042929 00000000            A  1290    	DL	0
04292D 00000000            A  1291    	DL	0
042931 00000000            A  1292    	DL	0
042935 00000000            A  1293    	DL	0
042939 00000000            A  1294    	DL	0
04293D 00000000            A  1295    	DL	0
042941 00000000            A  1296    	DL	0
042945 00000000            A  1297    	DL	0
042949 00000000            A  1298    	DL	0
04294D 00000000            A  1299    	DL	0
042951 00000000            A  1300    	DL	0
042955 00000000            A  1301    	DL	0
042959 00000000            A  1302    	DL	0
04295D 00000000            A  1303    	DL	0
042961 00000000            A  1304    	DL	0
042965 00000000            A  1305    	DL	0
042969 00000000            A  1306    	DL	0
04296D 00000000            A  1307    	DL	0
042971 00000000            A  1308    	DL	0
042975 00000000            A  1309    	DL	0
042979 00000000            A  1310    	DL	0
04297D 00000000            A  1311    	DL	0
042981 00000000            A  1312    	DL	0
042985 00000000            A  1313    	DL	0
042989 00000000            A  1314    	DL	0
04298D 00000000            A  1315    	DL	0
042991 00000000            A  1316    	DL	0
042995 00000000            A  1317    	DL	0
042999 00000000            A  1318    	DL	0
04299D 00000000            A  1319    	DL	0
0429A1 00000000            A  1320    	DL	0
0429A5 00000000            A  1321    	DL	0
0429A9 00000000            A  1322    	DL	0
0429AD 00000000            A  1323    	DL	0
0429B1 00000000            A  1324    	DL	0
0429B5 00000000            A  1325    	DL	0
0429B9 00000000            A  1326    	DL	0
0429BD 00000000            A  1327    	DL	0
0429C1 00000000            A  1328    	DL	0
0429C5 00000000            A  1329    	DL	0
0429C9 00000000            A  1330    	DL	0
0429CD 00000000            A  1331    	DL	0
0429D1 00000000            A  1332    	DL	0
0429D5 00000000            A  1333    	DL	0
0429D9 00000000            A  1334    	DL	0
0429DD 00000000            A  1335    	DL	0
0429E1 00000000            A  1336    	DL	0
0429E5 00000000            A  1337    	DL	0
0429E9 00000000            A  1338    	DL	0
0429ED 00000000            A  1339    	DL	0
0429F1 00000000            A  1340    	DL	0
0429F5 00000000            A  1341    	DL	0
0429F9 00000000            A  1342    	DL	0
0429FD 00000000            A  1343    	DL	0
042A01 00000000            A  1344    	DL	0
042A05 00000000            A  1345    	DL	0
042A09 00000000            A  1346    	DL	0
042A0D 00000000            A  1347    	DL	0
042A11 00000000            A  1348    	DL	0
042A15 00000000            A  1349    	DL	0
042A19 00000000            A  1350    	DL	0
042A1D 00000000            A  1351    	DL	0
042A21 00000000            A  1352    	DL	0
042A25 00000000            A  1353    	DL	0
042A29 00000000            A  1354    	DL	0
042A2D 00000000            A  1355    	DL	0
042A31 00000000            A  1356    	DL	0
042A35 00000000            A  1357    	DL	0
042A39 00000000            A  1358    	DL	0
042A3D 00000000            A  1359    	DL	0
042A41 00000000            A  1360    	DL	0
042A45 00000000            A  1361    	DL	0
042A49 00000000            A  1362    	DL	0
042A4D 00000000            A  1363    	DL	0
042A51 00000000            A  1364    	DL	0
042A55 00000000            A  1365    	DL	0
042A59 00000000            A  1366    	DL	0
042A5D 00000000            A  1367    	DL	0
042A61 00000000            A  1368    	DL	0
042A65 00000000            A  1369    	DL	0
042A69 00000000            A  1370    	DL	0
042A6D 00000000            A  1371    	DL	0
042A71 00000000            A  1372    	DL	0
042A75 00000000            A  1373    	DL	0
042A79 00000000            A  1374    	DL	0
042A7D 00000000            A  1375    	DL	0
042A81 00000000            A  1376    	DL	0
042A85 00000000            A  1377    	DL	0
042A89 00000000            A  1378    	DL	0
042A8D 00000000            A  1379    	DL	0
042A91 00000000            A  1380    	DL	0
042A95 00000000            A  1381    	DL	0
042A99 00000000            A  1382    	DL	0
042A9D 00000000            A  1383    	DL	0
042AA1 00000000            A  1384    	DL	0
042AA5 00000000            A  1385    	DL	0
042AA9 00000000            A  1386    	DL	0
042AAD 00000000            A  1387    	DL	0
042AB1 00000000            A  1388    	DL	0
042AB5 00000000            A  1389    	DL	0
042AB9 00000000            A  1390    	DL	0
                           A  1391    .DEFINE "ufoData"
                           A  1392    .ALIAS "_ufoData"
                           A  1393    .CLASS 69
                           A  1394    .VALUE _ufoData
                           A  1395    .DIM 3
                           A  1396    .DIM 256
                           A  1397    .TYPE 879
                           A  1398    .ENDEF
042ABD                     A  1399    _ufoBulletData:
042ABD 00000000            A  1400    	DL	0
042AC1 00000000            A  1401    	DL	0
042AC5 00000000            A  1402    	DL	0
042AC9 00000000            A  1403    	DL	0
042ACD 00000000            A  1404    	DL	0
042AD1 00000000            A  1405    	DL	0
042AD5 00000000            A  1406    	DL	0
042AD9 FFFFFFFF            A  1407    	DL	-1
042ADD FFFFFFFF            A  1408    	DL	-1
042AE1 00000000            A  1409    	DL	0
042AE5 00000000            A  1410    	DL	0
042AE9 00000000            A  1411    	DL	0
042AED 00000000            A  1412    	DL	0
042AF1 00000000            A  1413    	DL	0
042AF5 00000000            A  1414    	DL	0
042AF9 00000000            A  1415    	DL	0
042AFD 00000000            A  1416    	DL	0
042B01 00000000            A  1417    	DL	0
042B05 00000000            A  1418    	DL	0
042B09 00000000            A  1419    	DL	0
042B0D 00000000            A  1420    	DL	0
042B11 00000000            A  1421    	DL	0
042B15 00000000            A  1422    	DL	0
042B19 FFFFFFFF            A  1423    	DL	-1
042B1D FFFFFFFF            A  1424    	DL	-1
042B21 00000000            A  1425    	DL	0
042B25 00000000            A  1426    	DL	0
042B29 00000000            A  1427    	DL	0
042B2D 00000000            A  1428    	DL	0
042B31 00000000            A  1429    	DL	0
042B35 00000000            A  1430    	DL	0
042B39 00000000            A  1431    	DL	0
042B3D 00000000            A  1432    	DL	0
042B41 00000000            A  1433    	DL	0
042B45 00000000            A  1434    	DL	0
042B49 00000000            A  1435    	DL	0
042B4D 00000000            A  1436    	DL	0
042B51 00000000            A  1437    	DL	0
042B55 00000000            A  1438    	DL	0
042B59 FFFFFFFF            A  1439    	DL	-1
042B5D FFFFFFFF            A  1440    	DL	-1
042B61 00000000            A  1441    	DL	0
042B65 00000000            A  1442    	DL	0
042B69 00000000            A  1443    	DL	0
042B6D 00000000            A  1444    	DL	0
042B71 00000000            A  1445    	DL	0
042B75 00000000            A  1446    	DL	0
042B79 00000000            A  1447    	DL	0
042B7D 00000000            A  1448    	DL	0
042B81 00000000            A  1449    	DL	0
042B85 00000000            A  1450    	DL	0
042B89 00000000            A  1451    	DL	0
042B8D 00000000            A  1452    	DL	0
042B91 00000000            A  1453    	DL	0
042B95 00000000            A  1454    	DL	0
042B99 FFFFFFFF            A  1455    	DL	-1
042B9D FFFFFFFF            A  1456    	DL	-1
042BA1 00000000            A  1457    	DL	0
042BA5 00000000            A  1458    	DL	0
042BA9 00000000            A  1459    	DL	0
042BAD 00000000            A  1460    	DL	0
042BB1 00000000            A  1461    	DL	0
042BB5 00000000            A  1462    	DL	0
042BB9 00000000            A  1463    	DL	0
042BBD 00000000            A  1464    	DL	0
042BC1 00000000            A  1465    	DL	0
042BC5 00000000            A  1466    	DL	0
042BC9 00000000            A  1467    	DL	0
042BCD 00000000            A  1468    	DL	0
042BD1 00000000            A  1469    	DL	0
042BD5 00000000            A  1470    	DL	0
042BD9 00000000            A  1471    	DL	0
042BDD 00000000            A  1472    	DL	0
042BE1 00000000            A  1473    	DL	0
042BE5 00000000            A  1474    	DL	0
042BE9 00000000            A  1475    	DL	0
042BED 00000000            A  1476    	DL	0
042BF1 00000000            A  1477    	DL	0
042BF5 00000000            A  1478    	DL	0
042BF9 00000000            A  1479    	DL	0
042BFD 00000000            A  1480    	DL	0
042C01 00000000            A  1481    	DL	0
042C05 00000000            A  1482    	DL	0
042C09 00000000            A  1483    	DL	0
042C0D 00000000            A  1484    	DL	0
042C11 00000000            A  1485    	DL	0
042C15 00000000            A  1486    	DL	0
042C19 00000000            A  1487    	DL	0
042C1D 00000000            A  1488    	DL	0
042C21 00000000            A  1489    	DL	0
042C25 00000000            A  1490    	DL	0
042C29 00000000            A  1491    	DL	0
042C2D 00000000            A  1492    	DL	0
042C31 00000000            A  1493    	DL	0
042C35 00000000            A  1494    	DL	0
042C39 00000000            A  1495    	DL	0
042C3D 00000000            A  1496    	DL	0
042C41 00000000            A  1497    	DL	0
042C45 00000000            A  1498    	DL	0
042C49 00000000            A  1499    	DL	0
042C4D 00000000            A  1500    	DL	0
042C51 00000000            A  1501    	DL	0
042C55 00000000            A  1502    	DL	0
042C59 00000000            A  1503    	DL	0
042C5D 00000000            A  1504    	DL	0
042C61 00000000            A  1505    	DL	0
042C65 00000000            A  1506    	DL	0
042C69 00000000            A  1507    	DL	0
042C6D 00000000            A  1508    	DL	0
042C71 00000000            A  1509    	DL	0
042C75 00000000            A  1510    	DL	0
042C79 00000000            A  1511    	DL	0
042C7D 00000000            A  1512    	DL	0
042C81 00000000            A  1513    	DL	0
042C85 00000000            A  1514    	DL	0
042C89 00000000            A  1515    	DL	0
042C8D 00000000            A  1516    	DL	0
042C91 00000000            A  1517    	DL	0
042C95 00000000            A  1518    	DL	0
042C99 00000000            A  1519    	DL	0
042C9D 00000000            A  1520    	DL	0
042CA1 00000000            A  1521    	DL	0
042CA5 00000000            A  1522    	DL	0
042CA9 00000000            A  1523    	DL	0
042CAD 00000000            A  1524    	DL	0
042CB1 00000000            A  1525    	DL	0
042CB5 00000000            A  1526    	DL	0
042CB9 00000000            A  1527    	DL	0
042CBD 00000000            A  1528    	DL	0
042CC1 00000000            A  1529    	DL	0
042CC5 00000000            A  1530    	DL	0
042CC9 00000000            A  1531    	DL	0
042CCD 00000000            A  1532    	DL	0
042CD1 00000000            A  1533    	DL	0
042CD5 00000000            A  1534    	DL	0
042CD9 00000000            A  1535    	DL	0
042CDD 00000000            A  1536    	DL	0
042CE1 00000000            A  1537    	DL	0
042CE5 00000000            A  1538    	DL	0
042CE9 00000000            A  1539    	DL	0
042CED 00000000            A  1540    	DL	0
042CF1 00000000            A  1541    	DL	0
042CF5 00000000            A  1542    	DL	0
042CF9 00000000            A  1543    	DL	0
042CFD 00000000            A  1544    	DL	0
042D01 00000000            A  1545    	DL	0
042D05 00000000            A  1546    	DL	0
042D09 00000000            A  1547    	DL	0
042D0D 00000000            A  1548    	DL	0
042D11 00000000            A  1549    	DL	0
042D15 00000000            A  1550    	DL	0
042D19 00000000            A  1551    	DL	0
042D1D 00000000            A  1552    	DL	0
042D21 00000000            A  1553    	DL	0
042D25 00000000            A  1554    	DL	0
042D29 00000000            A  1555    	DL	0
042D2D 00000000            A  1556    	DL	0
042D31 00000000            A  1557    	DL	0
042D35 00000000            A  1558    	DL	0
042D39 00000000            A  1559    	DL	0
042D3D 00000000            A  1560    	DL	0
042D41 00000000            A  1561    	DL	0
042D45 00000000            A  1562    	DL	0
042D49 00000000            A  1563    	DL	0
042D4D 00000000            A  1564    	DL	0
042D51 00000000            A  1565    	DL	0
042D55 00000000            A  1566    	DL	0
042D59 00000000            A  1567    	DL	0
042D5D 00000000            A  1568    	DL	0
042D61 00000000            A  1569    	DL	0
042D65 00000000            A  1570    	DL	0
042D69 00000000            A  1571    	DL	0
042D6D 00000000            A  1572    	DL	0
042D71 00000000            A  1573    	DL	0
042D75 00000000            A  1574    	DL	0
042D79 00000000            A  1575    	DL	0
042D7D 00000000            A  1576    	DL	0
042D81 00000000            A  1577    	DL	0
042D85 00000000            A  1578    	DL	0
042D89 00000000            A  1579    	DL	0
042D8D 00000000            A  1580    	DL	0
042D91 00000000            A  1581    	DL	0
042D95 00000000            A  1582    	DL	0
042D99 00000000            A  1583    	DL	0
042D9D 00000000            A  1584    	DL	0
042DA1 00000000            A  1585    	DL	0
042DA5 00000000            A  1586    	DL	0
042DA9 00000000            A  1587    	DL	0
042DAD 00000000            A  1588    	DL	0
042DB1 00000000            A  1589    	DL	0
042DB5 00000000            A  1590    	DL	0
042DB9 00000000            A  1591    	DL	0
042DBD 00000000            A  1592    	DL	0
042DC1 00000000            A  1593    	DL	0
042DC5 00000000            A  1594    	DL	0
042DC9 00000000            A  1595    	DL	0
042DCD 00000000            A  1596    	DL	0
042DD1 00000000            A  1597    	DL	0
042DD5 00000000            A  1598    	DL	0
042DD9 00000000            A  1599    	DL	0
042DDD 00000000            A  1600    	DL	0
042DE1 00000000            A  1601    	DL	0
042DE5 00000000            A  1602    	DL	0
042DE9 00000000            A  1603    	DL	0
042DED 00000000            A  1604    	DL	0
042DF1 00000000            A  1605    	DL	0
042DF5 00000000            A  1606    	DL	0
042DF9 00000000            A  1607    	DL	0
042DFD 00000000            A  1608    	DL	0
042E01 00000000            A  1609    	DL	0
042E05 00000000            A  1610    	DL	0
042E09 00000000            A  1611    	DL	0
042E0D 00000000            A  1612    	DL	0
042E11 00000000            A  1613    	DL	0
042E15 00000000            A  1614    	DL	0
042E19 00000000            A  1615    	DL	0
042E1D 00000000            A  1616    	DL	0
042E21 00000000            A  1617    	DL	0
042E25 00000000            A  1618    	DL	0
042E29 00000000            A  1619    	DL	0
042E2D 00000000            A  1620    	DL	0
042E31 00000000            A  1621    	DL	0
042E35 00000000            A  1622    	DL	0
042E39 00000000            A  1623    	DL	0
042E3D 00000000            A  1624    	DL	0
042E41 00000000            A  1625    	DL	0
042E45 00000000            A  1626    	DL	0
042E49 00000000            A  1627    	DL	0
042E4D 00000000            A  1628    	DL	0
042E51 00000000            A  1629    	DL	0
042E55 00000000            A  1630    	DL	0
042E59 00000000            A  1631    	DL	0
042E5D 00000000            A  1632    	DL	0
042E61 00000000            A  1633    	DL	0
042E65 00000000            A  1634    	DL	0
042E69 00000000            A  1635    	DL	0
042E6D 00000000            A  1636    	DL	0
042E71 00000000            A  1637    	DL	0
042E75 00000000            A  1638    	DL	0
042E79 00000000            A  1639    	DL	0
042E7D 00000000            A  1640    	DL	0
042E81 00000000            A  1641    	DL	0
042E85 00000000            A  1642    	DL	0
042E89 00000000            A  1643    	DL	0
042E8D 00000000            A  1644    	DL	0
042E91 00000000            A  1645    	DL	0
042E95 00000000            A  1646    	DL	0
042E99 00000000            A  1647    	DL	0
042E9D 00000000            A  1648    	DL	0
042EA1 00000000            A  1649    	DL	0
042EA5 00000000            A  1650    	DL	0
042EA9 00000000            A  1651    	DL	0
042EAD 00000000            A  1652    	DL	0
042EB1 00000000            A  1653    	DL	0
042EB5 00000000            A  1654    	DL	0
042EB9 00000000            A  1655    	DL	0
                           A  1656    .DEFINE "ufoBulletData"
                           A  1657    .ALIAS "_ufoBulletData"
                           A  1658    .CLASS 69
                           A  1659    .VALUE _ufoBulletData
                           A  1660    .DIM 256
                           A  1661    .TYPE 111
                           A  1662    .ENDEF
                           A  1663    	SEGMENT CODE
                           A  1664    ;    1	/*
                           A  1665    ;    2	 * Title:			Space Critters for 
                           A  1666    ;    3	 * Author:			James Higgs (Jum Hi
                           A  1667    ;    4	 * Created:			2023
                           A  1668    ;    5	 * Last Updated:		2023-02-28
                           A  1669    ;    6	 *
                           A  1670    ;    7	 * Modinfo:
                           A  1671    ;    8	 */
                           A  1672    ;    9	 
                           A  1673    ;   10	#include <stdio.h>
                           A  1674    ;   11	#include <ctype.h>
                           A  1675    ;   12	#include "mos-interface.h"
                           A  1676    ;   13	#include "vdp.h"
                           A  1677    ;   14	
                           A  1678    ;   15	#include "spritedata.h"
                           A  1679    ;   16	
                           A  1680    ;   17	#define BITMAP_WIDTH	16
                           A  1681    ;   18	#define BITMAP_HEIGHT	16
                           A  1682    ;   19	
                           A  1683    ;   20	#define NUM_SPRITES 50
                           A  1684    ;   21	
                           A  1685    ;   22	extern int rand();
                           A  1686    ;   23	extern char getkeycode();
                           A  1687    ;   24	
                           A  1688    ;   25	
                           A  1689    ;   26	typedef struct //SPRITEPOS_t
                           A  1690    ;   27	{
                           A  1691    ;   28		UINT16 x;
                           A  1692    ;   29		UINT16 y;
                           A  1693    ;   30		INT16 dx;
                           A  1694    ;   31		INT16 dy;
                           A  1695    ;   32	} SPRITEPOS;
                           A  1696    .BEGREC "NONAME0",8
                           A  1697    .DEFINE "x"
                           A  1698    .VALUE 0
                           A  1699    .CLASS 8
                           A  1700    .TYPE 13
                           A  1701    .ENDEF
                           A  1702    .DEFINE "y"
                           A  1703    .VALUE 2
                           A  1704    .CLASS 8
                           A  1705    .TYPE 13
                           A  1706    .ENDEF
                           A  1707    .DEFINE "dx"
                           A  1708    .VALUE 4
                           A  1709    .CLASS 8
                           A  1710    .TYPE 3
                           A  1711    .ENDEF
                           A  1712    .DEFINE "dy"
                           A  1713    .VALUE 6
                           A  1714    .CLASS 8
                           A  1715    .TYPE 3
                           A  1716    .ENDEF
                           A  1717    .ENDREC "NONAME0"
                           A  1718    	SEGMENT BSS
042F2D                     A  1719    _sp:
042F2D                     A  1720    	DS	400
                           A  1721    .DEFINE "sp"
                           A  1722    .ALIAS "_sp"
                           A  1723    .CLASS 83
                           A  1724    .VALUE _sp
                           A  1725    .DIM 50
                           A  1726    .TAG "NONAME0"
                           A  1727    .TYPE 104
                           A  1728    .ENDEF
                           A  1729    ;   33	
                           A  1730    ;   34	SPRITEPOS sp[NUM_SPRITES];
                           A  1731    	SEGMENT CODE
                           A  1732    ;   35	
                           A  1733    ;   36	// Get a random number up to R
                           A  1734    ;   37	int randR(int R)
                           A  1735    ;   38	{
040106                     A  1736    _randR:
                           A  1737    .DEFINE "_randR"
                           A  1738    
                           A  1739    .VALUE _randR
                           A  1740    
                           A  1741    .CLASS 2
                           A  1742    
                           A  1743    .TYPE 68
                           A  1744    
                           A  1745    .ENDEF
                           A  1746    
                           A  1747    .BEGFUNC "randR",38,"_randR"
                           A  1748    
                           A  1749    .LINE 38
                           A  1750    
                           A  1751    .DEFINE "R"
                           A  1752    
                           A  1753    .CLASS 65
                           A  1754    
                           A  1755    .VALUE 6
                           A  1756    
                           A  1757    .TYPE 4
                           A  1758    
                           A  1759    .ENDEF
                           A  1760    
040106 DDE5                A  1761    	PUSH	IX
040108 DD210000 00         A  1762    	LD	IX,0
04010D DD39                A  1763    	ADD	IX,SP
                           A  1764    ;   39		return (rand() % R);
                           A  1765    .LINE 39
                           A  1766    
04010F CD 79 15 04         A  1767    	CALL	_rand
040113 DD0706              A  1768    	LD	BC,(IX+%6)
040116 CD 7C 12 04         A  1769    	CALL	__irems
                           A  1770    ;   40	}
                           A  1771    .LINE 40
                           A  1772    
04011A DDF9                A  1773    	LD	SP,IX
04011C DDE1                A  1774    	POP	IX
04011E C9                  A  1775    	RET	
                           A  1776    
                           A  1777    
                           A  1778    ;**************************** _randR **********
                           A  1779    ;Name                         Addr/Register   S
                           A  1780    ;_rand                               IMPORT  --
                           A  1781    ;R                                     IX+6    
                           A  1782    
                           A  1783    
                           A  1784    ; Stack Frame Size: 9 (bytes)
                           A  1785    ;       Spill Code: 0 (instruction)
                           A  1786    
                           A  1787    
                           A  1788    .ENDFUNC "randR",40,"_randR"
                           A  1789    ;   41	
                           A  1790    ;   42	// Initialise the sprite control blocks
                           A  1791    ;   43	void setupSprites()
                           A  1792    ;   44	{
04011F                     A  1793    _setupSprites:
                           A  1794    .DEFINE "_setupSprites"
                           A  1795    
                           A  1796    .VALUE _setupSprites
                           A  1797    
                           A  1798    .CLASS 2
                           A  1799    
                           A  1800    .TYPE 65
                           A  1801    
                           A  1802    .ENDEF
                           A  1803    
                           A  1804    .BEGFUNC "setupSprites",44,"_setupSprites"
                           A  1805    
                           A  1806    .LINE 44
                           A  1807    
                           A  1808    .DEFINE "i"
                           A  1809    
                           A  1810    .CLASS 65
                           A  1811    
                           A  1812    .VALUE -1
                           A  1813    
                           A  1814    .TYPE 12
                           A  1815    
                           A  1816    .ENDEF
                           A  1817    
04011F DDE5                A  1818    	PUSH	IX
040121 DD210000 00         A  1819    	LD	IX,0
040126 DD39                A  1820    	ADD	IX,SP
040128 C5                  A  1821    	PUSH	BC
040129 C5                  A  1822    	PUSH	BC
04012A 3B                  A  1823    	DEC	SP
                           A  1824    ;   45		UINT8 i;
                           A  1825    ;   46		for (i = 0; i < NUM_SPRITES; i++)
                           A  1826    .LINE 46
                           A  1827    
04012B DD36FF00            A  1828    	LD	(IX+%FFFFFFFF),%0
04012F C3 41 02 04         A  1829    	JR	L_12
040133                     A  1830    L_10:
                           A  1831    ;   47			{
                           A  1832    ;   48			vdp_spriteSelect(i);
                           A  1833    .LINE 48
                           A  1834    
040133 DD4EFF              A  1835    	LD	C,(IX+%FFFFFFFF)
040136 0600                A  1836    	LD	B,%0
040138 C5                  A  1837    	PUSH	BC
040139 CD 20 0C 04         A  1838    	CALL	_vdp_spriteSelect
04013D C1                  A  1839    	POP	BC
                           A  1840    ;   49			vdp_spriteClearFramesSelected()
                           A  1841    .LINE 49
                           A  1842    
04013E CD 59 0C 04         A  1843    	CALL	_vdp_spriteClearFramesSelected
                           A  1844    ;   50			vdp_spriteAddFrameSelected(2);	
                           A  1845    .LINE 50
                           A  1846    
040142 01020000            A  1847    	LD	BC,2
040146 C5                  A  1848    	PUSH	BC
040147 CD A2 0C 04         A  1849    	CALL	_vdp_spriteAddFrameSelected
04014B C1                  A  1850    	POP	BC
                           A  1851    ;   51			vdp_spriteAddFrameSelected(3);	
                           A  1852    .LINE 51
                           A  1853    
04014C 01030000            A  1854    	LD	BC,3
040150 C5                  A  1855    	PUSH	BC
040151 CD A2 0C 04         A  1856    	CALL	_vdp_spriteAddFrameSelected
040155 C1                  A  1857    	POP	BC
                           A  1858    ;   52			vdp_spriteAddFrameSelected(4);	
                           A  1859    .LINE 52
                           A  1860    
040156 01040000            A  1861    	LD	BC,4
04015A C5                  A  1862    	PUSH	BC
04015B CD A2 0C 04         A  1863    	CALL	_vdp_spriteAddFrameSelected
04015F C1                  A  1864    	POP	BC
                           A  1865    ;   53			vdp_spriteSetFrameSelected(0);
                           A  1866    .LINE 53
                           A  1867    
040160 01000000            A  1868    	LD	BC,0
040164 C5                  A  1869    	PUSH	BC
040165 CD 91 0D 04         A  1870    	CALL	_vdp_spriteSetFrameSelected
040169 C1                  A  1871    	POP	BC
                           A  1872    ;   54			vdp_spriteShowSelected();
                           A  1873    .LINE 54
                           A  1874    
04016A CD E7 0D 04         A  1875    	CALL	_vdp_spriteShowSelected
                           A  1876    ;   55				
                           A  1877    ;   56			sp[i].x = randR(300);
                           A  1878    .LINE 56
                           A  1879    
04016E 012C0100            A  1880    	LD	BC,300
040172 C5                  A  1881    	PUSH	BC
040173 CD 06 01 04         A  1882    	CALL	_randR
040177 C1                  A  1883    	POP	BC
040178 E5C1                A  1884    	LD	BC,HL
04017A DD7EFF              A  1885    	LD	A,(IX+%FFFFFFFF)
04017D B7ED62              A  1886    	UEXT	HL
040180 6F                  A  1887    	LD	L,A
040181 29                  A  1888    	ADD	HL,HL
040182 29                  A  1889    	ADD	HL,HL
040183 29                  A  1890    	ADD	HL,HL
040184 11 2D 2F 04         A  1891    	LD	DE,_sp
040188 19                  A  1892    	ADD	HL,DE
040189 E5FDE1              A  1893    	LD	IY,HL
04018C FD7100              A  1894    	LD	(IY+%0),C
04018F FD7001              A  1895    	LD	(IY+%1),B
                           A  1896    ;   57			sp[i].y = randR(190);
                           A  1897    .LINE 57
                           A  1898    
040192 01BE0000            A  1899    	LD	BC,190
040196 C5                  A  1900    	PUSH	BC
040197 CD 06 01 04         A  1901    	CALL	_randR
04019B C1                  A  1902    	POP	BC
04019C E5C1                A  1903    	LD	BC,HL
04019E DD7EFF              A  1904    	LD	A,(IX+%FFFFFFFF)
0401A1 B7ED62              A  1905    	UEXT	HL
0401A4 6F                  A  1906    	LD	L,A
0401A5 29                  A  1907    	ADD	HL,HL
0401A6 29                  A  1908    	ADD	HL,HL
0401A7 29                  A  1909    	ADD	HL,HL
0401A8 11 2D 2F 04         A  1910    	LD	DE,_sp
0401AC 19                  A  1911    	ADD	HL,DE
0401AD E5FDE1              A  1912    	LD	IY,HL
0401B0 FD7102              A  1913    	LD	(IY+%2),C
0401B3 FD7003              A  1914    	LD	(IY+%3),B
                           A  1915    ;   58			sp[i].dx = (randR(100) < 50) ? 
                           A  1916    .LINE 58
                           A  1917    
0401B6 01640000            A  1918    	LD	BC,100
0401BA C5                  A  1919    	PUSH	BC
0401BB CD 06 01 04         A  1920    	CALL	_randR
0401BF C1                  A  1921    	POP	BC
0401C0 01320000            A  1922    	LD	BC,50
0401C4 B7                  A  1923    	OR	A,A
0401C5 ED42                A  1924    	SBC	HL,BC
0401C7 CD 48 12 04         A  1925    	CALL	__setflag
0401CB F2 D8 01 04         A  1926    	JP	P,L_4
0401CF 01FFFFFF            A  1927    	LD	BC,16777215
0401D3 DD0FFC              A  1928    	LD	(IX+%FFFFFFFC),BC
0401D6 18 07               A  1929    	JR	L_5
0401D8                     A  1930    L_4:
0401D8 01010000            A  1931    	LD	BC,1
0401DC DD0FFC              A  1932    	LD	(IX+%FFFFFFFC),BC
0401DF                     A  1933    L_5:
0401DF DD7EFF              A  1934    	LD	A,(IX+%FFFFFFFF)
0401E2 B7ED62              A  1935    	UEXT	HL
0401E5 6F                  A  1936    	LD	L,A
0401E6 29                  A  1937    	ADD	HL,HL
0401E7 29                  A  1938    	ADD	HL,HL
0401E8 29                  A  1939    	ADD	HL,HL
0401E9 01 2D 2F 04         A  1940    	LD	BC,_sp
0401ED 09                  A  1941    	ADD	HL,BC
0401EE E5FDE1              A  1942    	LD	IY,HL
0401F1 DD07FC              A  1943    	LD	BC,(IX+%FFFFFFFC)
0401F4 FD7104              A  1944    	LD	(IY+%4),C
0401F7 FD7005              A  1945    	LD	(IY+%5),B
                           A  1946    ;   59			sp[i].dy = (randR(100) < 50) ? 
                           A  1947    .LINE 59
                           A  1948    
0401FA 01640000            A  1949    	LD	BC,100
0401FE C5                  A  1950    	PUSH	BC
0401FF CD 06 01 04         A  1951    	CALL	_randR
040203 C1                  A  1952    	POP	BC
040204 01320000            A  1953    	LD	BC,50
040208 B7                  A  1954    	OR	A,A
040209 ED42                A  1955    	SBC	HL,BC
04020B CD 48 12 04         A  1956    	CALL	__setflag
04020F F2 1C 02 04         A  1957    	JP	P,L_8
040213 01FFFFFF            A  1958    	LD	BC,16777215
040217 DD0FF9              A  1959    	LD	(IX+%FFFFFFF9),BC
04021A 18 07               A  1960    	JR	L_9
04021C                     A  1961    L_8:
04021C 01010000            A  1962    	LD	BC,1
040220 DD0FF9              A  1963    	LD	(IX+%FFFFFFF9),BC
040223                     A  1964    L_9:
040223 DD7EFF              A  1965    	LD	A,(IX+%FFFFFFFF)
040226 B7ED62              A  1966    	UEXT	HL
040229 6F                  A  1967    	LD	L,A
04022A 29                  A  1968    	ADD	HL,HL
04022B 29                  A  1969    	ADD	HL,HL
04022C 29                  A  1970    	ADD	HL,HL
04022D 01 2D 2F 04         A  1971    	LD	BC,_sp
040231 09                  A  1972    	ADD	HL,BC
040232 E5FDE1              A  1973    	LD	IY,HL
040235 DD07F9              A  1974    	LD	BC,(IX+%FFFFFFF9)
040238 FD7106              A  1975    	LD	(IY+%6),C
04023B FD7007              A  1976    	LD	(IY+%7),B
04023E DD34FF              A  1977    	INC	(IX+%FFFFFFFF)
                           A  1978    ;   60			}
040241                     A  1979    L_12:
                           A  1980    .LINE 60
                           A  1981    
040241 DD7EFF              A  1982    	LD	A,(IX+%FFFFFFFF)
040244 FE32                A  1983    	CP	A,%32
040246 DA 33 01 04         A  1984    	JR	C,L_10
                           A  1985    ;   61	}
                           A  1986    .LINE 61
                           A  1987    
04024A DDF9                A  1988    	LD	SP,IX
04024C DDE1                A  1989    	POP	IX
04024E C9                  A  1990    	RET	
                           A  1991    
                           A  1992    
                           A  1993    ;**************************** _setupSprites ***
                           A  1994    ;Name                         Addr/Register   S
                           A  1995    ;_sp                                 STATIC    
                           A  1996    ;_vdp_spriteShowSelected             IMPORT  --
                           A  1997    ;_vdp_spriteSetFrameSelected         IMPORT  --
                           A  1998    ;_vdp_spriteAddFrameSelected         IMPORT  --
                           A  1999    ;_vdp_spriteClearFramesSelected      IMPORT  --
                           A  2000    ;_vdp_spriteSelect                   IMPORT  --
                           A  2001    ;temp6                                 IX-7    
                           A  2002    ;temp2                                 IX-4    
                           A  2003    ;i                                     IX-1    
                           A  2004    
                           A  2005    
                           A  2006    ; Stack Frame Size: 13 (bytes)
                           A  2007    ;       Spill Code: 0 (instruction)
                           A  2008    
                           A  2009    
                           A  2010    .ENDFUNC "setupSprites",61,"_setupSprites"
                           A  2011    ;   62	
                           A  2012    ;   63	// Wait a specific number of frames (ve
                           A  2013    ;   64	void waitFrames(int numFrames)
                           A  2014    ;   65	{
04024F                     A  2015    _waitFrames:
                           A  2016    .DEFINE "_waitFrames"
                           A  2017    
                           A  2018    .VALUE _waitFrames
                           A  2019    
                           A  2020    .CLASS 2
                           A  2021    
                           A  2022    .TYPE 65
                           A  2023    
                           A  2024    .ENDEF
                           A  2025    
                           A  2026    .BEGFUNC "waitFrames",65,"_waitFrames"
                           A  2027    
                           A  2028    .LINE 65
                           A  2029    
                           A  2030    .DEFINE "numFrames"
                           A  2031    
                           A  2032    .CLASS 65
                           A  2033    
                           A  2034    .VALUE 6
                           A  2035    
                           A  2036    .TYPE 4
                           A  2037    
                           A  2038    .ENDEF
                           A  2039    
                           A  2040    .DEFINE "i"
                           A  2041    
                           A  2042    .CLASS 65
                           A  2043    
                           A  2044    .VALUE -3
                           A  2045    
                           A  2046    .TYPE 4
                           A  2047    
                           A  2048    .ENDEF
                           A  2049    
                           A  2050    .DEFINE "j"
                           A  2051    
                           A  2052    .CLASS 65
                           A  2053    
                           A  2054    .VALUE -6
                           A  2055    
                           A  2056    .TYPE 4
                           A  2057    
                           A  2058    .ENDEF
                           A  2059    
04024F DDE5                A  2060    	PUSH	IX
040251 DD210000 00         A  2061    	LD	IX,0
040256 DD39                A  2062    	ADD	IX,SP
040258 C5                  A  2063    	PUSH	BC
040259 C5                  A  2064    	PUSH	BC
                           A  2065    ;   66		int i, j;
                           A  2066    ;   67		for (i = 0; i < numFrames; i++)
                           A  2067    .LINE 67
                           A  2068    
04025A 01000000            A  2069    	LD	BC,0
04025E DD0FFD              A  2070    	LD	(IX+%FFFFFFFD),BC
040261 18 2D               A  2071    	JR	L_21
040263                     A  2072    L_19:
                           A  2073    ;   68			{
                           A  2074    ;   69			waitvblank();
                           A  2075    .LINE 69
                           A  2076    
040263 CD 98 11 04         A  2077    	CALL	_waitvblank
                           A  2078    ;   70			// wait for a bit till we are o
                           A  2079    ;   71			for (j= 0; j < 10000; j++) { }
                           A  2080    .LINE 71
                           A  2081    
040267 01000000            A  2082    	LD	BC,0
04026B DD0FFA              A  2083    	LD	(IX+%FFFFFFFA),BC
04026E 18 07               A  2084    	JR	L_18
040270                     A  2085    L_16:
040270 DD07FA              A  2086    	LD	BC,(IX+%FFFFFFFA)
040273 03                  A  2087    	INC	BC
040274 DD0FFA              A  2088    	LD	(IX+%FFFFFFFA),BC
040277                     A  2089    L_18:
040277 01102700            A  2090    	LD	BC,10000
04027B DD27FA              A  2091    	LD	HL,(IX+%FFFFFFFA)
04027E B7                  A  2092    	OR	A,A
04027F ED42                A  2093    	SBC	HL,BC
040281 CD 48 12 04         A  2094    	CALL	__setflag
040285 FA 70 02 04         A  2095    	JP	M,L_16
040289 DD07FD              A  2096    	LD	BC,(IX+%FFFFFFFD)
04028C 03                  A  2097    	INC	BC
04028D DD0FFD              A  2098    	LD	(IX+%FFFFFFFD),BC
                           A  2099    ;   72			}
040290                     A  2100    L_21:
                           A  2101    .LINE 72
                           A  2102    
040290 DD0706              A  2103    	LD	BC,(IX+%6)
040293 DD27FD              A  2104    	LD	HL,(IX+%FFFFFFFD)
040296 B7                  A  2105    	OR	A,A
040297 ED42                A  2106    	SBC	HL,BC
040299 CD 48 12 04         A  2107    	CALL	__setflag
04029D FA 63 02 04         A  2108    	JP	M,L_19
                           A  2109    ;   73	}
                           A  2110    .LINE 73
                           A  2111    
0402A1 DDF9                A  2112    	LD	SP,IX
0402A3 DDE1                A  2113    	POP	IX
0402A5 C9                  A  2114    	RET	
                           A  2115    
                           A  2116    
                           A  2117    ;**************************** _waitFrames *****
                           A  2118    ;Name                         Addr/Register   S
                           A  2119    ;_waitvblank                         IMPORT  --
                           A  2120    ;j                                     IX-6    
                           A  2121    ;i                                     IX-3    
                           A  2122    ;numFrames                             IX+6    
                           A  2123    
                           A  2124    
                           A  2125    ; Stack Frame Size: 15 (bytes)
                           A  2126    ;       Spill Code: 0 (instruction)
                           A  2127    
                           A  2128    
                           A  2129    .ENDFUNC "waitFrames",73,"_waitFrames"
                           A  2130    ;   74	
                           A  2131    ;   75	/// @param[in] argc			Argument co
                           A  2132    ;   76	/// @param[in] argv			Pointer to 
                           A  2133    ;   77	int main(int argc, char * argv[]) {
0402A6                     A  2134    _main:
                           A  2135    .DEFINE "_main"
                           A  2136    
                           A  2137    .VALUE _main
                           A  2138    
                           A  2139    .CLASS 2
                           A  2140    
                           A  2141    .TYPE 68
                           A  2142    
                           A  2143    .ENDEF
                           A  2144    
                           A  2145    .BEGFUNC "main",77,"_main"
                           A  2146    
                           A  2147    .LINE 77
                           A  2148    
                           A  2149    .DEFINE "argc"
                           A  2150    
                           A  2151    .CLASS 65
                           A  2152    
                           A  2153    .VALUE 6
                           A  2154    
                           A  2155    .TYPE 4
                           A  2156    
                           A  2157    .ENDEF
                           A  2158    
                           A  2159    .DEFINE "argv"
                           A  2160    
                           A  2161    .CLASS 65
                           A  2162    
                           A  2163    .VALUE 9
                           A  2164    
                           A  2165    .TYPE 290
                           A  2166    
                           A  2167    .ENDEF
                           A  2168    
                           A  2169    .DEFINE "i"
                           A  2170    
                           A  2171    .CLASS 65
                           A  2172    
                           A  2173    .VALUE -3
                           A  2174    
                           A  2175    .TYPE 4
                           A  2176    
                           A  2177    .ENDEF
                           A  2178    
                           A  2179    .DEFINE "j"
                           A  2180    
                           A  2181    .CLASS 65
                           A  2182    
                           A  2183    .VALUE -9
                           A  2184    
                           A  2185    .TYPE 4
                           A  2186    
                           A  2187    .ENDEF
                           A  2188    
                           A  2189    .DEFINE "k"
                           A  2190    
                           A  2191    .CLASS 65
                           A  2192    
                           A  2193    .VALUE -22
                           A  2194    
                           A  2195    .TYPE 12
                           A  2196    
                           A  2197    .ENDEF
                           A  2198    
0402A6 DDE5                A  2199    	PUSH	IX
0402A8 DD210000 00         A  2200    	LD	IX,0
0402AD DD39                A  2201    	ADD	IX,SP
0402AF ED22D8              A  2202    	LEA	HL,IX+%FFFFFFD8
0402B2 F9                  A  2203    	LD	SP,HL
                           A  2204    ;   78		int	i, j;
                           A  2205    ;   79		UINT8 k, flags;
                           A  2206    ;   80		UINT16 t;
                           A  2207    ;   81		
                           A  2208    ;   82		//putch(0x0C);		// CLS
                           A  2209    ;   83		//DI();
                           A  2210    ;   84		
                           A  2211    ;   85		vdp_mode(2);
                           A  2212    .LINE 85
                           A  2213    
0402B3 01020000            A  2214    	LD	BC,2
0402B7 C5                  A  2215    	PUSH	BC
0402B8 CD 09 07 04         A  2216    	CALL	_vdp_mode
0402BC C1                  A  2217    	POP	BC
                           A  2218    ;   86		vdp_cursorDisable();
                           A  2219    .LINE 86
                           A  2220    
0402BD CD C6 10 04         A  2221    	CALL	_vdp_cursorDisable
                           A  2222    ;   87		vdp_cls();
                           A  2223    .LINE 87
                           A  2224    
0402C1 CD 2E 07 04         A  2225    	CALL	_vdp_cls
                           A  2226    ;   88		
                           A  2227    ;   89		
                           A  2228    ;   90		//printf("Hello World\n\r");
                           A  2229    ;   91		//printf("Arguments:\n\r");
                           A  2230    ;   92		//printf("- argc: %d\n\r", argc);
                           A  2231    ;   93		//
                           A  2232    ;   94		//for(i = 0; i < argc; i++) {
                           A  2233    ;   95		//	printf("- argv[%d]: %s\n\r", i,
                           A  2234    ;   96		//}
                           A  2235    ;   97		
                           A  2236    ;   98		printf("C Sprites Demo\n\r");
                           A  2237    .LINE 98
                           A  2238    
0402C5 01 2E 14 04         A  2239    	LD	BC,___print_uputch
0402C9 ED43 BD 2E 04       A  2240    	LD	(___print_xputch),BC
0402CE 01 C4 2E 04         A  2241    	LD	BC,L__8
0402D2 C5                  A  2242    	PUSH	BC
0402D3 CD BD 12 04         A  2243    	CALL	___print_sendstring
0402D7 C1                  A  2244    	POP	BC
                           A  2245    ;   99	
                           A  2246    ;  100		
                           A  2247    ;  101		// Upload sprite data to the VDP
                           A  2248    ;  102		printf("Uploading bitmap data...\n\
                           A  2249    .LINE 102
                           A  2250    
0402D8 01 2E 14 04         A  2251    	LD	BC,___print_uputch
0402DC ED43 BD 2E 04       A  2252    	LD	(___print_xputch),BC
0402E1 01 D5 2E 04         A  2253    	LD	BC,L__9
0402E5 C5                  A  2254    	PUSH	BC
0402E6 CD BD 12 04         A  2255    	CALL	___print_sendstring
0402EA C1                  A  2256    	POP	BC
                           A  2257    ;  103		vdp_bitmapSendData(0, BITMAP_WIDTH,
                           A  2258    .LINE 103
                           A  2259    
0402EB 01 BD 16 04         A  2260    	LD	BC,_playerShipData
0402EF C5                  A  2261    	PUSH	BC
0402F0 01100000            A  2262    	LD	BC,16
0402F4 C5                  A  2263    	PUSH	BC
0402F5 C5                  A  2264    	PUSH	BC
0402F6 01000000            A  2265    	LD	BC,0
0402FA C5                  A  2266    	PUSH	BC
0402FB CD 0E 0B 04         A  2267    	CALL	_vdp_bitmapSendData
0402FF C1                  A  2268    	POP	BC
040300 C1                  A  2269    	POP	BC
040301 C1                  A  2270    	POP	BC
040302 C1                  A  2271    	POP	BC
                           A  2272    ;  104		vdp_bitmapSendData(1, BITMAP_WIDTH,
                           A  2273    .LINE 104
                           A  2274    
040303 01 BD 1A 04         A  2275    	LD	BC,_playerBulletData
040307 C5                  A  2276    	PUSH	BC
040308 01100000            A  2277    	LD	BC,16
04030C C5                  A  2278    	PUSH	BC
04030D C5                  A  2279    	PUSH	BC
04030E 01010000            A  2280    	LD	BC,1
040312 C5                  A  2281    	PUSH	BC
040313 CD 0E 0B 04         A  2282    	CALL	_vdp_bitmapSendData
040317 C1                  A  2283    	POP	BC
040318 C1                  A  2284    	POP	BC
040319 C1                  A  2285    	POP	BC
04031A C1                  A  2286    	POP	BC
                           A  2287    ;  105		vdp_bitmapSendData(2, BITMAP_WIDTH,
                           A  2288    .LINE 105
                           A  2289    
04031B 01 BD 1E 04         A  2290    	LD	BC,_ufoData
04031F C5                  A  2291    	PUSH	BC
040320 01100000            A  2292    	LD	BC,16
040324 C5                  A  2293    	PUSH	BC
040325 C5                  A  2294    	PUSH	BC
040326 01020000            A  2295    	LD	BC,2
04032A C5                  A  2296    	PUSH	BC
04032B CD 0E 0B 04         A  2297    	CALL	_vdp_bitmapSendData
04032F C1                  A  2298    	POP	BC
040330 C1                  A  2299    	POP	BC
040331 C1                  A  2300    	POP	BC
040332 C1                  A  2301    	POP	BC
                           A  2302    ;  106		vdp_bitmapSendData(3, BITMAP_WIDTH,
                           A  2303    .LINE 106
                           A  2304    
040333 01000400            A  2305    	LD	BC,1024
040337 21 BD 1E 04         A  2306    	LD	HL,_ufoData
04033B 09                  A  2307    	ADD	HL,BC
04033C E5                  A  2308    	PUSH	HL
04033D 01100000            A  2309    	LD	BC,16
040341 C5                  A  2310    	PUSH	BC
040342 C5                  A  2311    	PUSH	BC
040343 01030000            A  2312    	LD	BC,3
040347 C5                  A  2313    	PUSH	BC
040348 CD 0E 0B 04         A  2314    	CALL	_vdp_bitmapSendData
04034C C1                  A  2315    	POP	BC
04034D C1                  A  2316    	POP	BC
04034E C1                  A  2317    	POP	BC
04034F C1                  A  2318    	POP	BC
                           A  2319    ;  107		vdp_bitmapSendData(4, BITMAP_WIDTH,
                           A  2320    .LINE 107
                           A  2321    
040350 01000800            A  2322    	LD	BC,2048
040354 21 BD 1E 04         A  2323    	LD	HL,_ufoData
040358 09                  A  2324    	ADD	HL,BC
040359 E5                  A  2325    	PUSH	HL
04035A 01100000            A  2326    	LD	BC,16
04035E C5                  A  2327    	PUSH	BC
04035F C5                  A  2328    	PUSH	BC
040360 01040000            A  2329    	LD	BC,4
040364 C5                  A  2330    	PUSH	BC
040365 CD 0E 0B 04         A  2331    	CALL	_vdp_bitmapSendData
040369 C1                  A  2332    	POP	BC
04036A C1                  A  2333    	POP	BC
04036B C1                  A  2334    	POP	BC
04036C C1                  A  2335    	POP	BC
                           A  2336    ;  108		vdp_bitmapSendData(5, BITMAP_WIDTH,
                           A  2337    .LINE 108
                           A  2338    
04036D 01 BD 2A 04         A  2339    	LD	BC,_ufoBulletData
040371 C5                  A  2340    	PUSH	BC
040372 01100000            A  2341    	LD	BC,16
040376 C5                  A  2342    	PUSH	BC
040377 C5                  A  2343    	PUSH	BC
040378 01050000            A  2344    	LD	BC,5
04037C C5                  A  2345    	PUSH	BC
04037D CD 0E 0B 04         A  2346    	CALL	_vdp_bitmapSendData
040381 C1                  A  2347    	POP	BC
040382 C1                  A  2348    	POP	BC
040383 C1                  A  2349    	POP	BC
040384 C1                  A  2350    	POP	BC
                           A  2351    ;  109		
                           A  2352    ;  110		for (i = 0; i < 10; i++)
                           A  2353    .LINE 110
                           A  2354    
040385 01000000            A  2355    	LD	BC,0
040389 DD0FFD              A  2356    	LD	(IX+%FFFFFFFD),BC
04038C 18 2F               A  2357    	JR	L_26
04038E                     A  2358    L_24:
                           A  2359    ;  111			{
                           A  2360    ;  112			vdp_bitmapDraw(0, randR(300) , 
                           A  2361    .LINE 112
                           A  2362    
04038E 01A00000            A  2363    	LD	BC,160
040392 C5                  A  2364    	PUSH	BC
040393 CD 06 01 04         A  2365    	CALL	_randR
040397 C1                  A  2366    	POP	BC
040398 E5FDE1              A  2367    	LD	IY,HL
04039B ED031E              A  2368    	LEA	BC,IY+%1E
04039E C5                  A  2369    	PUSH	BC
04039F 012C0100            A  2370    	LD	BC,300
0403A3 C5                  A  2371    	PUSH	BC
0403A4 CD 06 01 04         A  2372    	CALL	_randR
0403A8 C1                  A  2373    	POP	BC
0403A9 E5                  A  2374    	PUSH	HL
0403AA 01000000            A  2375    	LD	BC,0
0403AE C5                  A  2376    	PUSH	BC
0403AF CD 78 0B 04         A  2377    	CALL	_vdp_bitmapDraw
0403B3 C1                  A  2378    	POP	BC
0403B4 C1                  A  2379    	POP	BC
0403B5 C1                  A  2380    	POP	BC
0403B6 DD07FD              A  2381    	LD	BC,(IX+%FFFFFFFD)
0403B9 03                  A  2382    	INC	BC
0403BA DD0FFD              A  2383    	LD	(IX+%FFFFFFFD),BC
                           A  2384    ;  113			}
0403BD                     A  2385    L_26:
                           A  2386    .LINE 113
                           A  2387    
0403BD 010A0000            A  2388    	LD	BC,10
0403C1 DD27FD              A  2389    	LD	HL,(IX+%FFFFFFFD)
0403C4 B7                  A  2390    	OR	A,A
0403C5 ED42                A  2391    	SBC	HL,BC
0403C7 CD 48 12 04         A  2392    	CALL	__setflag
0403CB FA 8E 03 04         A  2393    	JP	M,L_24
                           A  2394    ;  114		vdp_spriteRefresh();
                           A  2395    .LINE 114
                           A  2396    
0403CF CD 7C 0F 04         A  2397    	CALL	_vdp_spriteRefresh
                           A  2398    ;  115		waitFrames(50);
                           A  2399    .LINE 115
                           A  2400    
0403D3 01320000            A  2401    	LD	BC,50
0403D7 C5                  A  2402    	PUSH	BC
0403D8 CD 4F 02 04         A  2403    	CALL	_waitFrames
0403DC C1                  A  2404    	POP	BC
                           A  2405    ;  116			
                           A  2406    ;  117		// Set up sprites
                           A  2407    ;  118		// Note: BBCBASIC procedure:
                           A  2408    ;  119		//    1. Select sprite n   (VDU 23,
                           A  2409    ;  120		//    2. Clear frames for current s
                           A  2410    ;  121		//    3. Add bitmap 0 as frame 0 of
                           A  2411    ;  122		//    4. Show the current sprite (V
                           A  2412    ;  123		//    5. Set total number of sprite
                           A  2413    ;  124		//   Move the sprites:
                           A  2414    ;  125		//    1. Select sprite n (VDU 23, 2
                           A  2415    ;  126		//    2. Move selected sprite to  (
                           A  2416    ;  127		//   Refresh the sprites
                           A  2417    ;  128		//    1. *FX19    (wait for VSYNC)
                           A  2418    ;  129		//    2. Refresh (VDU 23, 27, 15)
                           A  2419    ;  130		
                           A  2420    ;  131		printf("Setting up sprites...\n\r")
                           A  2421    .LINE 131
                           A  2422    
0403DD 01 2E 14 04         A  2423    	LD	BC,___print_uputch
0403E1 ED43 BD 2E 04       A  2424    	LD	(___print_xputch),BC
0403E6 01 F0 2E 04         A  2425    	LD	BC,L__11
0403EA C5                  A  2426    	PUSH	BC
0403EB CD BD 12 04         A  2427    	CALL	___print_sendstring
0403EF C1                  A  2428    	POP	BC
                           A  2429    ;  132		setupSprites();		// sets up 16 s
                           A  2430    .LINE 132
                           A  2431    
0403F0 CD 1F 01 04         A  2432    	CALL	_setupSprites
                           A  2433    ;  133		
                           A  2434    ;  134		vdp_spriteActivateTotal(NUM_SPRITES
                           A  2435    .LINE 134
                           A  2436    
0403F4 01320000            A  2437    	LD	BC,50
0403F8 C5                  A  2438    	PUSH	BC
0403F9 CD 43 0F 04         A  2439    	CALL	_vdp_spriteActivateTotal
0403FD C1                  A  2440    	POP	BC
                           A  2441    ;  135		
                           A  2442    ;  136		for (i = 0; i < NUM_SPRITES; i++)
                           A  2443    .LINE 136
                           A  2444    
0403FE 01000000            A  2445    	LD	BC,0
040402 DD0FFD              A  2446    	LD	(IX+%FFFFFFFD),BC
040405 18 2D               A  2447    	JR	L_31
040407                     A  2448    L_29:
                           A  2449    ;  137			{
                           A  2450    ;  138			vdp_spriteMoveTo(i, sp[i].x, sp
                           A  2451    .LINE 138
                           A  2452    
040407 DD27FD              A  2453    	LD	HL,(IX+%FFFFFFFD)
04040A 29                  A  2454    	ADD	HL,HL
04040B 29                  A  2455    	ADD	HL,HL
04040C 29                  A  2456    	ADD	HL,HL
04040D 01 2D 2F 04         A  2457    	LD	BC,_sp
040411 09                  A  2458    	ADD	HL,BC
040412 DD2FE1              A  2459    	LD	(IX+%FFFFFFE1),HL
040415 DD31E1              A  2460    	LD	IY,(IX+%FFFFFFE1)
040418 FD0702              A  2461    	LD	BC,(IY+%2)
04041B C5                  A  2462    	PUSH	BC
04041C FD0700              A  2463    	LD	BC,(IY+%0)
04041F C5                  A  2464    	PUSH	BC
040420 DD4EFD              A  2465    	LD	C,(IX+%FFFFFFFD)
040423 0600                A  2466    	LD	B,%0
040425 C5                  A  2467    	PUSH	BC
040426 CD B7 0E 04         A  2468    	CALL	_vdp_spriteMoveTo
04042A C1                  A  2469    	POP	BC
04042B C1                  A  2470    	POP	BC
04042C C1                  A  2471    	POP	BC
04042D DD07FD              A  2472    	LD	BC,(IX+%FFFFFFFD)
040430 03                  A  2473    	INC	BC
040431 DD0FFD              A  2474    	LD	(IX+%FFFFFFFD),BC
                           A  2475    ;  139			}	
040434                     A  2476    L_31:
                           A  2477    .LINE 139
                           A  2478    
040434 01320000            A  2479    	LD	BC,50
040438 DD27FD              A  2480    	LD	HL,(IX+%FFFFFFFD)
04043B B7                  A  2481    	OR	A,A
04043C ED42                A  2482    	SBC	HL,BC
04043E CD 48 12 04         A  2483    	CALL	__setflag
040442 FA 07 04 04         A  2484    	JP	M,L_29
                           A  2485    ;  140		
                           A  2486    ;  141		vdp_spriteRefresh();
                           A  2487    .LINE 141
                           A  2488    
040446 CD 7C 0F 04         A  2489    	CALL	_vdp_spriteRefresh
                           A  2490    ;  142	
                           A  2491    ;  143		//EI();
                           A  2492    ;  144		
                           A  2493    ;  145		printf("Animating... Press any key 
                           A  2494    .LINE 145
                           A  2495    
04044A 01 2E 14 04         A  2496    	LD	BC,___print_uputch
04044E ED43 BD 2E 04       A  2497    	LD	(___print_xputch),BC
040453 01 08 2F 04         A  2498    	LD	BC,L__13
040457 C5                  A  2499    	PUSH	BC
040458 CD BD 12 04         A  2500    	CALL	___print_sendstring
04045C C1                  A  2501    	POP	BC
                           A  2502    ;  146		for (i = 0; i < 1000; i++)
                           A  2503    .LINE 146
                           A  2504    
04045D 01000000            A  2505    	LD	BC,0
040461 DD0FFD              A  2506    	LD	(IX+%FFFFFFFD),BC
040464 C3 29 06 04         A  2507    	JR	L_52
040468                     A  2508    L_50:
                           A  2509    ;  147			{
                           A  2510    ;  148			waitvblank();
                           A  2511    .LINE 148
                           A  2512    
040468 CD 98 11 04         A  2513    	CALL	_waitvblank
                           A  2514    ;  149			if (i > 500)
                           A  2515    .LINE 149
                           A  2516    
04046C DD07FD              A  2517    	LD	BC,(IX+%FFFFFFFD)
04046F 21F40100            A  2518    	LD	HL,500
040473 B7                  A  2519    	OR	A,A
040474 ED42                A  2520    	SBC	HL,BC
040476 CD 48 12 04         A  2521    	CALL	__setflag
04047A F2 D3 04 04         A  2522    	JP	P,L_47
                           A  2523    ;  150				{
                           A  2524    ;  151				vdp_scroll(1, 1, 1);
                           A  2525    .LINE 151
                           A  2526    
04047E 01010000            A  2527    	LD	BC,1
040482 C5                  A  2528    	PUSH	BC
040483 C5                  A  2529    	PUSH	BC
040484 C5                  A  2530    	PUSH	BC
040485 CD 1E 11 04         A  2531    	CALL	_vdp_scroll
040489 C1                  A  2532    	POP	BC
04048A C1                  A  2533    	POP	BC
04048B C1                  A  2534    	POP	BC
                           A  2535    ;  152				vdp_plotColour(randR(256), 
                           A  2536    .LINE 152
                           A  2537    
04048C 01000100            A  2538    	LD	BC,256
040490 C5                  A  2539    	PUSH	BC
040491 CD 06 01 04         A  2540    	CALL	_randR
040495 C1                  A  2541    	POP	BC
040496 4D                  A  2542    	LD	C,L
040497 0600                A  2543    	LD	B,%0
040499 C5                  A  2544    	PUSH	BC
04049A 01000100            A  2545    	LD	BC,256
04049E C5                  A  2546    	PUSH	BC
04049F CD 06 01 04         A  2547    	CALL	_randR
0404A3 C1                  A  2548    	POP	BC
0404A4 4D                  A  2549    	LD	C,L
0404A5 0600                A  2550    	LD	B,%0
0404A7 C5                  A  2551    	PUSH	BC
0404A8 01000100            A  2552    	LD	BC,256
0404AC C5                  A  2553    	PUSH	BC
0404AD CD 06 01 04         A  2554    	CALL	_randR
0404B1 C1                  A  2555    	POP	BC
0404B2 4D                  A  2556    	LD	C,L
0404B3 0600                A  2557    	LD	B,%0
0404B5 C5                  A  2558    	PUSH	BC
0404B6 CD 71 08 04         A  2559    	CALL	_vdp_plotColour
0404BA C1                  A  2560    	POP	BC
0404BB C1                  A  2561    	POP	BC
0404BC C1                  A  2562    	POP	BC
                           A  2563    ;  153				vdp_plotPoint(319, randR(20
                           A  2564    .LINE 153
                           A  2565    
0404BD 01C80000            A  2566    	LD	BC,200
0404C1 C5                  A  2567    	PUSH	BC
0404C2 CD 06 01 04         A  2568    	CALL	_randR
0404C6 C1                  A  2569    	POP	BC
0404C7 E5                  A  2570    	PUSH	HL
0404C8 013F0100            A  2571    	LD	BC,319
0404CC C5                  A  2572    	PUSH	BC
0404CD CD 5B 09 04         A  2573    	CALL	_vdp_plotPoint
0404D1 C1                  A  2574    	POP	BC
0404D2 C1                  A  2575    	POP	BC
                           A  2576    ;  154				}
0404D3                     A  2577    L_47:
                           A  2578    .LINE 154
                           A  2579    
                           A  2580    ;  155	
                           A  2581    ;  156			for (j = 0; j < NUM_SPRITES; j+
                           A  2582    .LINE 156
                           A  2583    
0404D3 01000000            A  2584    	LD	BC,0
0404D7 DD0FF7              A  2585    	LD	(IX+%FFFFFFF7),BC
0404DA C3 02 06 04         A  2586    	JR	L_46
0404DE                     A  2587    L_44:
                           A  2588    ;  157				{
                           A  2589    ;  158				sp[j].x += sp[j].dx;
                           A  2590    .LINE 158
                           A  2591    
0404DE DD27F7              A  2592    	LD	HL,(IX+%FFFFFFF7)
0404E1 29                  A  2593    	ADD	HL,HL
0404E2 29                  A  2594    	ADD	HL,HL
0404E3 29                  A  2595    	ADD	HL,HL
0404E4 DD2FFA              A  2596    	LD	(IX+%FFFFFFFA),HL
0404E7 01 2D 2F 04         A  2597    	LD	BC,_sp
0404EB DD27FA              A  2598    	LD	HL,(IX+%FFFFFFFA)
0404EE 09                  A  2599    	ADD	HL,BC
0404EF DD2FDE              A  2600    	LD	(IX+%FFFFFFDE),HL
0404F2 DD31DE              A  2601    	LD	IY,(IX+%FFFFFFDE)
0404F5 FD0700              A  2602    	LD	BC,(IY+%0)
0404F8 FD2704              A  2603    	LD	HL,(IY+%4)
0404FB 4009                A  2604    	ADD.SIS	HL,BC
0404FD E5C1                A  2605    	LD	BC,HL
0404FF FD7100              A  2606    	LD	(IY+%0),C
040502 FD7001              A  2607    	LD	(IY+%1),B
                           A  2608    ;  159				if (sp[j].x < 2)
                           A  2609    .LINE 159
                           A  2610    
040505 49010200            A  2611    	LD.LIS	BC,2
040509 FD2700              A  2612    	LD	HL,(IY+%0)
04050C B7                  A  2613    	OR	A,A
04050D 40ED42              A  2614    	SBC.SIS	HL,BC
040510 30 21               A  2615    	JR	NC,L_38
                           A  2616    ;  160					sp[j].dx = 1;
                           A  2617    .LINE 160
                           A  2618    
040512 DD07FA              A  2619    	LD	BC,(IX+%FFFFFFFA)
040515 DD0FE7              A  2620    	LD	(IX+%FFFFFFE7),BC
040518 01 2D 2F 04         A  2621    	LD	BC,_sp
04051C DD27FA              A  2622    	LD	HL,(IX+%FFFFFFFA)
04051F 09                  A  2623    	ADD	HL,BC
040520 DD2FEB              A  2624    	LD	(IX+%FFFFFFEB),HL
040523 DD2FEE              A  2625    	LD	(IX+%FFFFFFEE),HL
040526 DD31EE              A  2626    	LD	IY,(IX+%FFFFFFEE)
040529 FD360401            A  2627    	LD	(IY+%4),%1
04052D FD360500            A  2628    	LD	(IY+%5),%0
                           A  2629    ;  161				else if (sp[j].x > 317)
                           A  2630    .LINE 161
                           A  2631    
040531 18 3E               A  2632    	JR	L_39
040533                     A  2633    L_38:
040533 DD07FA              A  2634    	LD	BC,(IX+%FFFFFFFA)
040536 DD0FE7              A  2635    	LD	(IX+%FFFFFFE7),BC
040539 01 2D 2F 04         A  2636    	LD	BC,_sp
04053D DD27FA              A  2637    	LD	HL,(IX+%FFFFFFFA)
040540 09                  A  2638    	ADD	HL,BC
040541 DD2FF4              A  2639    	LD	(IX+%FFFFFFF4),HL
040544 DD2FEB              A  2640    	LD	(IX+%FFFFFFEB),HL
040547 DD2FEE              A  2641    	LD	(IX+%FFFFFFEE),HL
04054A DD31F4              A  2642    	LD	IY,(IX+%FFFFFFF4)
04054D FD0700              A  2643    	LD	BC,(IY+%0)
040550 49213D01            A  2644    	LD.LIS	HL,317
040554 B7                  A  2645    	OR	A,A
040555 40ED42              A  2646    	SBC.SIS	HL,BC
040558 30 17               A  2647    	JR	NC,L_39
                           A  2648    ;  162					sp[j].dx = -1;
                           A  2649    .LINE 162
                           A  2650    
04055A DD07F4              A  2651    	LD	BC,(IX+%FFFFFFF4)
04055D DD0FEB              A  2652    	LD	(IX+%FFFFFFEB),BC
040560 DD07F4              A  2653    	LD	BC,(IX+%FFFFFFF4)
040563 DD0FEE              A  2654    	LD	(IX+%FFFFFFEE),BC
040566 DD31F4              A  2655    	LD	IY,(IX+%FFFFFFF4)
040569 3EFF                A  2656    	LD	A,%FF
04056B FD7704              A  2657    	LD	(IY+%4),A
04056E FD7705              A  2658    	LD	(IY+%5),A
040571                     A  2659    L_39:
                           A  2660    ;  163				
                           A  2661    ;  164				sp[j].y += sp[j].dy;
                           A  2662    .LINE 164
                           A  2663    
040571 DD07E7              A  2664    	LD	BC,(IX+%FFFFFFE7)
040574 DD0FF1              A  2665    	LD	(IX+%FFFFFFF1),BC
040577 01 2D 2F 04         A  2666    	LD	BC,_sp
04057B DD27F1              A  2667    	LD	HL,(IX+%FFFFFFF1)
04057E 09                  A  2668    	ADD	HL,BC
04057F DD2FDB              A  2669    	LD	(IX+%FFFFFFDB),HL
040582 DD31DB              A  2670    	LD	IY,(IX+%FFFFFFDB)
040585 FD0702              A  2671    	LD	BC,(IY+%2)
040588 FD2706              A  2672    	LD	HL,(IY+%6)
04058B 4009                A  2673    	ADD.SIS	HL,BC
04058D E5C1                A  2674    	LD	BC,HL
04058F FD7102              A  2675    	LD	(IY+%2),C
040592 FD7003              A  2676    	LD	(IY+%3),B
                           A  2677    ;  165				if (sp[j].y < 2)
                           A  2678    .LINE 165
                           A  2679    
040595 49010200            A  2680    	LD.LIS	BC,2
040599 FD2702              A  2681    	LD	HL,(IY+%2)
04059C B7                  A  2682    	OR	A,A
04059D 40ED42              A  2683    	SBC.SIS	HL,BC
0405A0 30 0D               A  2684    	JR	NC,L_42
                           A  2685    ;  166					sp[j].dy = 1;
                           A  2686    .LINE 166
                           A  2687    
0405A2 DD31EB              A  2688    	LD	IY,(IX+%FFFFFFEB)
0405A5 FD360601            A  2689    	LD	(IY+%6),%1
0405A9 FD360700            A  2690    	LD	(IY+%7),%0
                           A  2691    ;  167				else if (sp[j].y > 253)
                           A  2692    .LINE 167
                           A  2693    
0405AD 18 21               A  2694    	JR	L_43
0405AF                     A  2695    L_42:
0405AF DD07EE              A  2696    	LD	BC,(IX+%FFFFFFEE)
0405B2 DD0FE4              A  2697    	LD	(IX+%FFFFFFE4),BC
0405B5 DD31E4              A  2698    	LD	IY,(IX+%FFFFFFE4)
0405B8 FD0702              A  2699    	LD	BC,(IY+%2)
0405BB 4921FD00            A  2700    	LD.LIS	HL,253
0405BF B7                  A  2701    	OR	A,A
0405C0 40ED42              A  2702    	SBC.SIS	HL,BC
0405C3 30 0B               A  2703    	JR	NC,L_43
                           A  2704    ;  168					sp[j].dy = -1;
                           A  2705    .LINE 168
                           A  2706    
0405C5 DD31E4              A  2707    	LD	IY,(IX+%FFFFFFE4)
0405C8 3EFF                A  2708    	LD	A,%FF
0405CA FD7706              A  2709    	LD	(IY+%6),A
0405CD FD7707              A  2710    	LD	(IY+%7),A
0405D0                     A  2711    L_43:
                           A  2712    ;  169				
                           A  2713    ;  170				vdp_spriteSelect(j);
                           A  2714    .LINE 170
                           A  2715    
0405D0 DD4EF7              A  2716    	LD	C,(IX+%FFFFFFF7)
0405D3 0600                A  2717    	LD	B,%0
0405D5 C5                  A  2718    	PUSH	BC
0405D6 CD 20 0C 04         A  2719    	CALL	_vdp_spriteSelect
0405DA C1                  A  2720    	POP	BC
                           A  2721    ;  171				vdp_spriteMoveToSelected(sp
                           A  2722    .LINE 171
                           A  2723    
0405DB 01 2D 2F 04         A  2724    	LD	BC,_sp
0405DF DD27F1              A  2725    	LD	HL,(IX+%FFFFFFF1)
0405E2 09                  A  2726    	ADD	HL,BC
0405E3 DD2FD8              A  2727    	LD	(IX+%FFFFFFD8),HL
0405E6 DD31D8              A  2728    	LD	IY,(IX+%FFFFFFD8)
0405E9 FD0702              A  2729    	LD	BC,(IY+%2)
0405EC C5                  A  2730    	PUSH	BC
0405ED FD0700              A  2731    	LD	BC,(IY+%0)
0405F0 C5                  A  2732    	PUSH	BC
0405F1 CD 79 0E 04         A  2733    	CALL	_vdp_spriteMoveToSelected
0405F5 C1                  A  2734    	POP	BC
0405F6 C1                  A  2735    	POP	BC
                           A  2736    ;  172				vdp_spriteNextFrameSelected
                           A  2737    .LINE 172
                           A  2738    
0405F7 CD FF 0C 04         A  2739    	CALL	_vdp_spriteNextFrameSelected
0405FB DD07F7              A  2740    	LD	BC,(IX+%FFFFFFF7)
0405FE 03                  A  2741    	INC	BC
0405FF DD0FF7              A  2742    	LD	(IX+%FFFFFFF7),BC
                           A  2743    ;  173				}
040602                     A  2744    L_46:
                           A  2745    .LINE 173
                           A  2746    
040602 01320000            A  2747    	LD	BC,50
040606 DD27F7              A  2748    	LD	HL,(IX+%FFFFFFF7)
040609 B7                  A  2749    	OR	A,A
04060A ED42                A  2750    	SBC	HL,BC
04060C CD 48 12 04         A  2751    	CALL	__setflag
040610 FA DE 04 04         A  2752    	JP	M,L_44
                           A  2753    ;  174			
                           A  2754    ;  175			vdp_spriteRefresh();
                           A  2755    .LINE 175
                           A  2756    
040614 CD 7C 0F 04         A  2757    	CALL	_vdp_spriteRefresh
                           A  2758    ;  176				
                           A  2759    ;  177			//keycode = getsysvar8bit(sysva
                           A  2760    ;  178			k = getkeycode();
                           A  2761    .LINE 178
                           A  2762    
040618 CD CF 11 04         A  2763    	CALL	_getkeycode
04061C DD77EA              A  2764    	LD	(IX+%FFFFFFEA),A
                           A  2765    ;  179			//printf("%d\n\r", k);
                           A  2766    ;  180			//if (27 == k)
                           A  2767    ;  181			if (k != 0)
                           A  2768    .LINE 181
                           A  2769    
04061F B7                  A  2770    	OR	A,A
040620 20 15               A  2771    	JR	NZ,L_53
040622 DD07FD              A  2772    	LD	BC,(IX+%FFFFFFFD)
040625 03                  A  2773    	INC	BC
040626 DD0FFD              A  2774    	LD	(IX+%FFFFFFFD),BC
                           A  2775    ;  182				break;
                           A  2776    ;  183	
                           A  2777    ;  184			//t = getsysvar16bit(sysvar_tim
                           A  2778    ;  185			//vdp_cursorGoto(0, 20);
                           A  2779    ;  186			//printf("%d\n\r", t);
                           A  2780    ;  187			}
040629                     A  2781    L_52:
                           A  2782    .LINE 187
                           A  2783    
040629 01E80300            A  2784    	LD	BC,1000
04062D DD27FD              A  2785    	LD	HL,(IX+%FFFFFFFD)
040630 B7                  A  2786    	OR	A,A
040631 ED42                A  2787    	SBC	HL,BC
040633 FA 68 04 04         A  2788    	JP	M,L_50
040637                     A  2789    L_53:
                           A  2790    ;  188			
                           A  2791    ;  189		vdp_spriteActivateTotal(0);
                           A  2792    .LINE 189
                           A  2793    
040637 01000000            A  2794    	LD	BC,0
04063B C5                  A  2795    	PUSH	BC
04063C CD 43 0F 04         A  2796    	CALL	_vdp_spriteActivateTotal
040640 C1                  A  2797    	POP	BC
                           A  2798    ;  190		vdp_spriteRefresh();
                           A  2799    .LINE 190
                           A  2800    
040641 CD 7C 0F 04         A  2801    	CALL	_vdp_spriteRefresh
                           A  2802    ;  191		vdp_mode(1);
                           A  2803    .LINE 191
                           A  2804    
040645 01010000            A  2805    	LD	BC,1
040649 C5                  A  2806    	PUSH	BC
04064A CD 09 07 04         A  2807    	CALL	_vdp_mode
04064E C1                  A  2808    	POP	BC
                           A  2809    ;  192		vdp_cursorEnable();
                           A  2810    .LINE 192
                           A  2811    
04064F CD F2 10 04         A  2812    	CALL	_vdp_cursorEnable
                           A  2813    ;  193		
                           A  2814    ;  194		return 0;
                           A  2815    .LINE 194
                           A  2816    
040653 B7                  A  2817    	OR	A,A
040654 ED62                A  2818    	SBC	HL,HL
                           A  2819    .LINE 195
                           A  2820    
040656 DDF9                A  2821    	LD	SP,IX
040658 DDE1                A  2822    	POP	IX
04065A C9                  A  2823    	RET	
                           A  2824    
                           A  2825    
                           A  2826    ;**************************** _main ***********
                           A  2827    ;Name                         Addr/Register   S
                           A  2828    ;_vdp_cursorEnable                   IMPORT  --
                           A  2829    ;_getkeycode                         IMPORT  --
                           A  2830    ;_vdp_spriteNextFrameSelected        IMPORT  --
                           A  2831    ;_vdp_spriteMoveToSelected           IMPORT  --
                           A  2832    ;_vdp_spriteSelect                   IMPORT  --
                           A  2833    ;_vdp_plotPoint                      IMPORT  --
                           A  2834    ;_vdp_plotColour                     IMPORT  --
                           A  2835    ;_vdp_scroll                         IMPORT  --
                           A  2836    ;_waitvblank                         IMPORT  --
                           A  2837    ;_vdp_spriteMoveTo                   IMPORT  --
                           A  2838    ;_sp                                 STATIC    
                           A  2839    ;_vdp_spriteActivateTotal            IMPORT  --
                           A  2840    ;_vdp_spriteRefresh                  IMPORT  --
                           A  2841    ;_vdp_bitmapDraw                     IMPORT  --
                           A  2842    ;_ufoBulletData                      STATIC   1
                           A  2843    ;_ufoData                            STATIC   3
                           A  2844    ;_playerBulletData                   STATIC   1
                           A  2845    ;_playerShipData                     STATIC   1
                           A  2846    ;_vdp_bitmapSendData                 IMPORT  --
                           A  2847    ;___print_sendstring                 IMPORT  --
                           A  2848    ;___print_xputch                     IMPORT    
                           A  2849    ;___print_uputch                     IMPORT  --
                           A  2850    ;_vdp_cls                            IMPORT  --
                           A  2851    ;_vdp_cursorDisable                  IMPORT  --
                           A  2852    ;_vdp_mode                           IMPORT  --
                           A  2853    ;G_10                                 IX-28    
                           A  2854    ;G_4                                  IX-25    
                           A  2855    ;k                                    IX-22    
                           A  2856    ;G_6                                  IX-21    
                           A  2857    ;G_8                                  IX-18    
                           A  2858    ;G_11                                 IX-15    
                           A  2859    ;G_3                                  IX-12    
                           A  2860    ;j                                     IX-9    
                           A  2861    ;G_0                                   IX-6    
                           A  2862    ;i                                     IX-3    
                           A  2863    ;argv                                  IX+9    
                           A  2864    ;argc                                  IX+6    
                           A  2865    
                           A  2866    
                           A  2867    ; Stack Frame Size: 52 (bytes)
                           A  2868    ;       Spill Code: 0 (instruction)
                           A  2869    
                           A  2870    
                           A  2871    .ENDFUNC "main",195,"_main"
                           A  2872    	SEGMENT STRSECT
042EC4                     A  2873    L__8:
042EC4 43205370 72697465   A  2874    	DB	"C Sprites Demo"
042ECC 73204465 6D6F 
042ED2 0A0D00              A  2875    	DB	10,13,0
042ED5                     A  2876    L__9:
042ED5 55706C6F 6164696E   A  2877    	DB	"Uploading bitmap data..."
042EDD 67206269 746D6170 
042EE5 20646174 612E2E2E 
042EED 0A0D00              A  2878    	DB	10,13,0
042EF0                     A  2879    L__11:
042EF0 53657474 696E6720   A  2880    	DB	"Setting up sprites..."
042EF8 75702073 70726974 
042F00 65732E2E 2E 
042F05 0A0D00              A  2881    	DB	10,13,0
042F08                     A  2882    L__13:
042F08 416E696D 6174696E   A  2883    	DB	"Animating... Press any key to exit"
042F10 672E2E2E 20507265 
042F18 73732061 6E79206B 
042F20 65792074 6F206578 
042F28 6974 
042F2A 0A0D00              A  2884    	DB	10,13,0
                           A  2885    	XREF _getkeycode:ROM
                           A  2886    	XREF _rand:ROM
                           A  2887    	XREF _vdp_spriteRefresh:ROM
                           A  2888    	XREF _vdp_spriteActivateTotal:ROM
                           A  2889    	XREF _vdp_spriteMoveTo:ROM
                           A  2890    	XREF _vdp_spriteMoveToSelected:ROM
                           A  2891    	XREF _vdp_spriteShowSelected:ROM
                           A  2892    	XREF _vdp_spriteSetFrameSelected:ROM
                           A  2893    	XREF _vdp_spriteNextFrameSelected:ROM
                           A  2894    	XREF _vdp_spriteAddFrameSelected:ROM
                           A  2895    	XREF _vdp_spriteClearFramesSelected:ROM
                           A  2896    	XREF _vdp_spriteSelect:ROM
                           A  2897    	XREF _vdp_bitmapDraw:ROM
                           A  2898    	XREF _vdp_bitmapSendData:ROM
                           A  2899    	XREF _vdp_plotPoint:ROM
                           A  2900    	XREF _vdp_plotColour:ROM
                           A  2901    	XREF _vdp_cursorEnable:ROM
                           A  2902    	XREF _vdp_cursorDisable:ROM
                           A  2903    	XREF _vdp_cls:ROM
                           A  2904    	XREF _vdp_scroll:ROM
                           A  2905    	XREF _vdp_mode:ROM
                           A  2906    	XREF _waitvblank:ROM
                           A  2907    	XREF ___print_sendstring:ROM
                           A  2908    	XREF ___print_xputch:ROM
                           A  2909    	XREF ___print_uputch:ROM
                           A  2910    	XREF __irems:ROM
                           A  2911    	XREF __setflag:ROM
                           A  2912    	XDEF _main
                           A  2913    	XDEF _waitFrames
                           A  2914    	XDEF _setupSprites
                           A  2915    	XDEF _randR
                           A  2916    	XDEF _sp
                           A  2917    	XDEF _ufoBulletData
                           A  2918    	XDEF _ufoData
                           A  2919    	XDEF _playerBulletData
                           A  2920    	XDEF _playerShipData
                           A  2921    	END


Errors: 0
Warnings: 0
Lines Assembled: 2922
